
10_USB.elf:     file format elf32-littlearm

Sections:
Idx Name          Size      VMA       LMA       File off  Algn
  0 .isr_vector   00000188  08000000  08000000  00010000  2**0
                  CONTENTS, ALLOC, LOAD, READONLY, DATA
  1 .text         0000352c  08000190  08000190  00010190  2**4
                  CONTENTS, ALLOC, LOAD, READONLY, CODE
  2 .rodata       000000bc  080036bc  080036bc  000136bc  2**0
                  CONTENTS, ALLOC, LOAD, READONLY, DATA
  3 .ARM          00000008  08003778  08003778  00013778  2**2
                  CONTENTS, ALLOC, LOAD, READONLY, DATA
  4 .init_array   00000004  08003780  08003780  00013780  2**2
                  CONTENTS, ALLOC, LOAD, DATA
  5 .fini_array   00000004  08003784  08003784  00013784  2**2
                  CONTENTS, ALLOC, LOAD, DATA
  6 .data         000001c4  20000000  08003788  00020000  2**2
                  CONTENTS, ALLOC, LOAD, DATA
  7 .ccmram       00000000  10000000  10000000  000201c4  2**0
                  CONTENTS
  8 .bss          0000187c  200001c4  200001c4  000201c4  2**2
                  ALLOC
  9 ._user_heap_stack 00000600  20001a40  20001a40  000201c4  2**0
                  ALLOC
 10 .ARM.attributes 00000030  00000000  00000000  000201c4  2**0
                  CONTENTS, READONLY
 11 .debug_info   0001716a  00000000  00000000  000201f4  2**0
                  CONTENTS, READONLY, DEBUGGING
 12 .debug_abbrev 000033ab  00000000  00000000  0003735e  2**0
                  CONTENTS, READONLY, DEBUGGING
 13 .debug_loc    00005306  00000000  00000000  0003a709  2**0
                  CONTENTS, READONLY, DEBUGGING
 14 .debug_aranges 00000930  00000000  00000000  0003fa10  2**3
                  CONTENTS, READONLY, DEBUGGING
 15 .debug_ranges 00000a50  00000000  00000000  00040340  2**3
                  CONTENTS, READONLY, DEBUGGING
 16 .debug_line   00005650  00000000  00000000  00040d90  2**0
                  CONTENTS, READONLY, DEBUGGING
 17 .debug_str    000033e2  00000000  00000000  000463e0  2**0
                  CONTENTS, READONLY, DEBUGGING
 18 .comment      0000007c  00000000  00000000  000497c2  2**0
                  CONTENTS, READONLY
 19 .debug_frame  00001a80  00000000  00000000  00049840  2**2
                  CONTENTS, READONLY, DEBUGGING

Disassembly of section .text:

08000190 <__do_global_dtors_aux>:
 8000190:	b510      	push	{r4, lr}
 8000192:	4c05      	ldr	r4, [pc, #20]	; (80001a8 <__do_global_dtors_aux+0x18>)
 8000194:	7823      	ldrb	r3, [r4, #0]
 8000196:	b933      	cbnz	r3, 80001a6 <__do_global_dtors_aux+0x16>
 8000198:	4b04      	ldr	r3, [pc, #16]	; (80001ac <__do_global_dtors_aux+0x1c>)
 800019a:	b113      	cbz	r3, 80001a2 <__do_global_dtors_aux+0x12>
 800019c:	4804      	ldr	r0, [pc, #16]	; (80001b0 <__do_global_dtors_aux+0x20>)
 800019e:	f3af 8000 	nop.w
 80001a2:	2301      	movs	r3, #1
 80001a4:	7023      	strb	r3, [r4, #0]
 80001a6:	bd10      	pop	{r4, pc}
 80001a8:	200001c4 	.word	0x200001c4
 80001ac:	00000000 	.word	0x00000000
 80001b0:	080036a4 	.word	0x080036a4

080001b4 <frame_dummy>:
 80001b4:	b508      	push	{r3, lr}
 80001b6:	4b03      	ldr	r3, [pc, #12]	; (80001c4 <frame_dummy+0x10>)
 80001b8:	b11b      	cbz	r3, 80001c2 <frame_dummy+0xe>
 80001ba:	4903      	ldr	r1, [pc, #12]	; (80001c8 <frame_dummy+0x14>)
 80001bc:	4803      	ldr	r0, [pc, #12]	; (80001cc <frame_dummy+0x18>)
 80001be:	f3af 8000 	nop.w
 80001c2:	bd08      	pop	{r3, pc}
 80001c4:	00000000 	.word	0x00000000
 80001c8:	200001c8 	.word	0x200001c8
 80001cc:	080036a4 	.word	0x080036a4

080001d0 <memchr>:
 80001d0:	f001 01ff 	and.w	r1, r1, #255	; 0xff
 80001d4:	2a10      	cmp	r2, #16
 80001d6:	db2b      	blt.n	8000230 <memchr+0x60>
 80001d8:	f010 0f07 	tst.w	r0, #7
 80001dc:	d008      	beq.n	80001f0 <memchr+0x20>
 80001de:	f810 3b01 	ldrb.w	r3, [r0], #1
 80001e2:	3a01      	subs	r2, #1
 80001e4:	428b      	cmp	r3, r1
 80001e6:	d02d      	beq.n	8000244 <memchr+0x74>
 80001e8:	f010 0f07 	tst.w	r0, #7
 80001ec:	b342      	cbz	r2, 8000240 <memchr+0x70>
 80001ee:	d1f6      	bne.n	80001de <memchr+0xe>
 80001f0:	b4f0      	push	{r4, r5, r6, r7}
 80001f2:	ea41 2101 	orr.w	r1, r1, r1, lsl #8
 80001f6:	ea41 4101 	orr.w	r1, r1, r1, lsl #16
 80001fa:	f022 0407 	bic.w	r4, r2, #7
 80001fe:	f07f 0700 	mvns.w	r7, #0
 8000202:	2300      	movs	r3, #0
 8000204:	e8f0 5602 	ldrd	r5, r6, [r0], #8
 8000208:	3c08      	subs	r4, #8
 800020a:	ea85 0501 	eor.w	r5, r5, r1
 800020e:	ea86 0601 	eor.w	r6, r6, r1
 8000212:	fa85 f547 	uadd8	r5, r5, r7
 8000216:	faa3 f587 	sel	r5, r3, r7
 800021a:	fa86 f647 	uadd8	r6, r6, r7
 800021e:	faa5 f687 	sel	r6, r5, r7
 8000222:	b98e      	cbnz	r6, 8000248 <memchr+0x78>
 8000224:	d1ee      	bne.n	8000204 <memchr+0x34>
 8000226:	bcf0      	pop	{r4, r5, r6, r7}
 8000228:	f001 01ff 	and.w	r1, r1, #255	; 0xff
 800022c:	f002 0207 	and.w	r2, r2, #7
 8000230:	b132      	cbz	r2, 8000240 <memchr+0x70>
 8000232:	f810 3b01 	ldrb.w	r3, [r0], #1
 8000236:	3a01      	subs	r2, #1
 8000238:	ea83 0301 	eor.w	r3, r3, r1
 800023c:	b113      	cbz	r3, 8000244 <memchr+0x74>
 800023e:	d1f8      	bne.n	8000232 <memchr+0x62>
 8000240:	2000      	movs	r0, #0
 8000242:	4770      	bx	lr
 8000244:	3801      	subs	r0, #1
 8000246:	4770      	bx	lr
 8000248:	2d00      	cmp	r5, #0
 800024a:	bf06      	itte	eq
 800024c:	4635      	moveq	r5, r6
 800024e:	3803      	subeq	r0, #3
 8000250:	3807      	subne	r0, #7
 8000252:	f015 0f01 	tst.w	r5, #1
 8000256:	d107      	bne.n	8000268 <memchr+0x98>
 8000258:	3001      	adds	r0, #1
 800025a:	f415 7f80 	tst.w	r5, #256	; 0x100
 800025e:	bf02      	ittt	eq
 8000260:	3001      	addeq	r0, #1
 8000262:	f415 3fc0 	tsteq.w	r5, #98304	; 0x18000
 8000266:	3001      	addeq	r0, #1
 8000268:	bcf0      	pop	{r4, r5, r6, r7}
 800026a:	3801      	subs	r0, #1
 800026c:	4770      	bx	lr
 800026e:	bf00      	nop

08000270 <__aeabi_uldivmod>:
 8000270:	b953      	cbnz	r3, 8000288 <__aeabi_uldivmod+0x18>
 8000272:	b94a      	cbnz	r2, 8000288 <__aeabi_uldivmod+0x18>
 8000274:	2900      	cmp	r1, #0
 8000276:	bf08      	it	eq
 8000278:	2800      	cmpeq	r0, #0
 800027a:	bf1c      	itt	ne
 800027c:	f04f 31ff 	movne.w	r1, #4294967295
 8000280:	f04f 30ff 	movne.w	r0, #4294967295
 8000284:	f000 b97a 	b.w	800057c <__aeabi_idiv0>
 8000288:	f1ad 0c08 	sub.w	ip, sp, #8
 800028c:	e96d ce04 	strd	ip, lr, [sp, #-16]!
 8000290:	f000 f806 	bl	80002a0 <__udivmoddi4>
 8000294:	f8dd e004 	ldr.w	lr, [sp, #4]
 8000298:	e9dd 2302 	ldrd	r2, r3, [sp, #8]
 800029c:	b004      	add	sp, #16
 800029e:	4770      	bx	lr

080002a0 <__udivmoddi4>:
 80002a0:	e92d 47f0 	stmdb	sp!, {r4, r5, r6, r7, r8, r9, sl, lr}
 80002a4:	468c      	mov	ip, r1
 80002a6:	460d      	mov	r5, r1
 80002a8:	4604      	mov	r4, r0
 80002aa:	9e08      	ldr	r6, [sp, #32]
 80002ac:	2b00      	cmp	r3, #0
 80002ae:	d151      	bne.n	8000354 <__udivmoddi4+0xb4>
 80002b0:	428a      	cmp	r2, r1
 80002b2:	4617      	mov	r7, r2
 80002b4:	d96d      	bls.n	8000392 <__udivmoddi4+0xf2>
 80002b6:	fab2 fe82 	clz	lr, r2
 80002ba:	f1be 0f00 	cmp.w	lr, #0
 80002be:	d00b      	beq.n	80002d8 <__udivmoddi4+0x38>
 80002c0:	f1ce 0c20 	rsb	ip, lr, #32
 80002c4:	fa01 f50e 	lsl.w	r5, r1, lr
 80002c8:	fa20 fc0c 	lsr.w	ip, r0, ip
 80002cc:	fa02 f70e 	lsl.w	r7, r2, lr
 80002d0:	ea4c 0c05 	orr.w	ip, ip, r5
 80002d4:	fa00 f40e 	lsl.w	r4, r0, lr
 80002d8:	ea4f 4a17 	mov.w	sl, r7, lsr #16
 80002dc:	0c25      	lsrs	r5, r4, #16
 80002de:	fbbc f8fa 	udiv	r8, ip, sl
 80002e2:	fa1f f987 	uxth.w	r9, r7
 80002e6:	fb0a cc18 	mls	ip, sl, r8, ip
 80002ea:	ea45 450c 	orr.w	r5, r5, ip, lsl #16
 80002ee:	fb08 f309 	mul.w	r3, r8, r9
 80002f2:	42ab      	cmp	r3, r5
 80002f4:	d90a      	bls.n	800030c <__udivmoddi4+0x6c>
 80002f6:	19ed      	adds	r5, r5, r7
 80002f8:	f108 32ff 	add.w	r2, r8, #4294967295
 80002fc:	f080 8123 	bcs.w	8000546 <__udivmoddi4+0x2a6>
 8000300:	42ab      	cmp	r3, r5
 8000302:	f240 8120 	bls.w	8000546 <__udivmoddi4+0x2a6>
 8000306:	f1a8 0802 	sub.w	r8, r8, #2
 800030a:	443d      	add	r5, r7
 800030c:	1aed      	subs	r5, r5, r3
 800030e:	b2a4      	uxth	r4, r4
 8000310:	fbb5 f0fa 	udiv	r0, r5, sl
 8000314:	fb0a 5510 	mls	r5, sl, r0, r5
 8000318:	ea44 4405 	orr.w	r4, r4, r5, lsl #16
 800031c:	fb00 f909 	mul.w	r9, r0, r9
 8000320:	45a1      	cmp	r9, r4
 8000322:	d909      	bls.n	8000338 <__udivmoddi4+0x98>
 8000324:	19e4      	adds	r4, r4, r7
 8000326:	f100 33ff 	add.w	r3, r0, #4294967295
 800032a:	f080 810a 	bcs.w	8000542 <__udivmoddi4+0x2a2>
 800032e:	45a1      	cmp	r9, r4
 8000330:	f240 8107 	bls.w	8000542 <__udivmoddi4+0x2a2>
 8000334:	3802      	subs	r0, #2
 8000336:	443c      	add	r4, r7
 8000338:	eba4 0409 	sub.w	r4, r4, r9
 800033c:	ea40 4008 	orr.w	r0, r0, r8, lsl #16
 8000340:	2100      	movs	r1, #0
 8000342:	2e00      	cmp	r6, #0
 8000344:	d061      	beq.n	800040a <__udivmoddi4+0x16a>
 8000346:	fa24 f40e 	lsr.w	r4, r4, lr
 800034a:	2300      	movs	r3, #0
 800034c:	6034      	str	r4, [r6, #0]
 800034e:	6073      	str	r3, [r6, #4]
 8000350:	e8bd 87f0 	ldmia.w	sp!, {r4, r5, r6, r7, r8, r9, sl, pc}
 8000354:	428b      	cmp	r3, r1
 8000356:	d907      	bls.n	8000368 <__udivmoddi4+0xc8>
 8000358:	2e00      	cmp	r6, #0
 800035a:	d054      	beq.n	8000406 <__udivmoddi4+0x166>
 800035c:	2100      	movs	r1, #0
 800035e:	e886 0021 	stmia.w	r6, {r0, r5}
 8000362:	4608      	mov	r0, r1
 8000364:	e8bd 87f0 	ldmia.w	sp!, {r4, r5, r6, r7, r8, r9, sl, pc}
 8000368:	fab3 f183 	clz	r1, r3
 800036c:	2900      	cmp	r1, #0
 800036e:	f040 808e 	bne.w	800048e <__udivmoddi4+0x1ee>
 8000372:	42ab      	cmp	r3, r5
 8000374:	d302      	bcc.n	800037c <__udivmoddi4+0xdc>
 8000376:	4282      	cmp	r2, r0
 8000378:	f200 80fa 	bhi.w	8000570 <__udivmoddi4+0x2d0>
 800037c:	1a84      	subs	r4, r0, r2
 800037e:	eb65 0503 	sbc.w	r5, r5, r3
 8000382:	2001      	movs	r0, #1
 8000384:	46ac      	mov	ip, r5
 8000386:	2e00      	cmp	r6, #0
 8000388:	d03f      	beq.n	800040a <__udivmoddi4+0x16a>
 800038a:	e886 1010 	stmia.w	r6, {r4, ip}
 800038e:	e8bd 87f0 	ldmia.w	sp!, {r4, r5, r6, r7, r8, r9, sl, pc}
 8000392:	b912      	cbnz	r2, 800039a <__udivmoddi4+0xfa>
 8000394:	2701      	movs	r7, #1
 8000396:	fbb7 f7f2 	udiv	r7, r7, r2
 800039a:	fab7 fe87 	clz	lr, r7
 800039e:	f1be 0f00 	cmp.w	lr, #0
 80003a2:	d134      	bne.n	800040e <__udivmoddi4+0x16e>
 80003a4:	1beb      	subs	r3, r5, r7
 80003a6:	0c3a      	lsrs	r2, r7, #16
 80003a8:	fa1f fc87 	uxth.w	ip, r7
 80003ac:	2101      	movs	r1, #1
 80003ae:	fbb3 f8f2 	udiv	r8, r3, r2
 80003b2:	0c25      	lsrs	r5, r4, #16
 80003b4:	fb02 3318 	mls	r3, r2, r8, r3
 80003b8:	ea45 4503 	orr.w	r5, r5, r3, lsl #16
 80003bc:	fb0c f308 	mul.w	r3, ip, r8
 80003c0:	42ab      	cmp	r3, r5
 80003c2:	d907      	bls.n	80003d4 <__udivmoddi4+0x134>
 80003c4:	19ed      	adds	r5, r5, r7
 80003c6:	f108 30ff 	add.w	r0, r8, #4294967295
 80003ca:	d202      	bcs.n	80003d2 <__udivmoddi4+0x132>
 80003cc:	42ab      	cmp	r3, r5
 80003ce:	f200 80d1 	bhi.w	8000574 <__udivmoddi4+0x2d4>
 80003d2:	4680      	mov	r8, r0
 80003d4:	1aed      	subs	r5, r5, r3
 80003d6:	b2a3      	uxth	r3, r4
 80003d8:	fbb5 f0f2 	udiv	r0, r5, r2
 80003dc:	fb02 5510 	mls	r5, r2, r0, r5
 80003e0:	ea43 4405 	orr.w	r4, r3, r5, lsl #16
 80003e4:	fb0c fc00 	mul.w	ip, ip, r0
 80003e8:	45a4      	cmp	ip, r4
 80003ea:	d907      	bls.n	80003fc <__udivmoddi4+0x15c>
 80003ec:	19e4      	adds	r4, r4, r7
 80003ee:	f100 33ff 	add.w	r3, r0, #4294967295
 80003f2:	d202      	bcs.n	80003fa <__udivmoddi4+0x15a>
 80003f4:	45a4      	cmp	ip, r4
 80003f6:	f200 80b8 	bhi.w	800056a <__udivmoddi4+0x2ca>
 80003fa:	4618      	mov	r0, r3
 80003fc:	eba4 040c 	sub.w	r4, r4, ip
 8000400:	ea40 4008 	orr.w	r0, r0, r8, lsl #16
 8000404:	e79d      	b.n	8000342 <__udivmoddi4+0xa2>
 8000406:	4631      	mov	r1, r6
 8000408:	4630      	mov	r0, r6
 800040a:	e8bd 87f0 	ldmia.w	sp!, {r4, r5, r6, r7, r8, r9, sl, pc}
 800040e:	f1ce 0420 	rsb	r4, lr, #32
 8000412:	fa05 f30e 	lsl.w	r3, r5, lr
 8000416:	fa07 f70e 	lsl.w	r7, r7, lr
 800041a:	fa20 f804 	lsr.w	r8, r0, r4
 800041e:	0c3a      	lsrs	r2, r7, #16
 8000420:	fa25 f404 	lsr.w	r4, r5, r4
 8000424:	ea48 0803 	orr.w	r8, r8, r3
 8000428:	fbb4 f1f2 	udiv	r1, r4, r2
 800042c:	ea4f 4518 	mov.w	r5, r8, lsr #16
 8000430:	fb02 4411 	mls	r4, r2, r1, r4
 8000434:	fa1f fc87 	uxth.w	ip, r7
 8000438:	ea45 4504 	orr.w	r5, r5, r4, lsl #16
 800043c:	fb01 f30c 	mul.w	r3, r1, ip
 8000440:	42ab      	cmp	r3, r5
 8000442:	fa00 f40e 	lsl.w	r4, r0, lr
 8000446:	d909      	bls.n	800045c <__udivmoddi4+0x1bc>
 8000448:	19ed      	adds	r5, r5, r7
 800044a:	f101 30ff 	add.w	r0, r1, #4294967295
 800044e:	f080 808a 	bcs.w	8000566 <__udivmoddi4+0x2c6>
 8000452:	42ab      	cmp	r3, r5
 8000454:	f240 8087 	bls.w	8000566 <__udivmoddi4+0x2c6>
 8000458:	3902      	subs	r1, #2
 800045a:	443d      	add	r5, r7
 800045c:	1aeb      	subs	r3, r5, r3
 800045e:	fa1f f588 	uxth.w	r5, r8
 8000462:	fbb3 f0f2 	udiv	r0, r3, r2
 8000466:	fb02 3310 	mls	r3, r2, r0, r3
 800046a:	ea45 4503 	orr.w	r5, r5, r3, lsl #16
 800046e:	fb00 f30c 	mul.w	r3, r0, ip
 8000472:	42ab      	cmp	r3, r5
 8000474:	d907      	bls.n	8000486 <__udivmoddi4+0x1e6>
 8000476:	19ed      	adds	r5, r5, r7
 8000478:	f100 38ff 	add.w	r8, r0, #4294967295
 800047c:	d26f      	bcs.n	800055e <__udivmoddi4+0x2be>
 800047e:	42ab      	cmp	r3, r5
 8000480:	d96d      	bls.n	800055e <__udivmoddi4+0x2be>
 8000482:	3802      	subs	r0, #2
 8000484:	443d      	add	r5, r7
 8000486:	1aeb      	subs	r3, r5, r3
 8000488:	ea40 4101 	orr.w	r1, r0, r1, lsl #16
 800048c:	e78f      	b.n	80003ae <__udivmoddi4+0x10e>
 800048e:	f1c1 0720 	rsb	r7, r1, #32
 8000492:	fa22 f807 	lsr.w	r8, r2, r7
 8000496:	408b      	lsls	r3, r1
 8000498:	fa05 f401 	lsl.w	r4, r5, r1
 800049c:	ea48 0303 	orr.w	r3, r8, r3
 80004a0:	fa20 fe07 	lsr.w	lr, r0, r7
 80004a4:	ea4f 4c13 	mov.w	ip, r3, lsr #16
 80004a8:	40fd      	lsrs	r5, r7
 80004aa:	ea4e 0e04 	orr.w	lr, lr, r4
 80004ae:	fbb5 f9fc 	udiv	r9, r5, ip
 80004b2:	ea4f 441e 	mov.w	r4, lr, lsr #16
 80004b6:	fb0c 5519 	mls	r5, ip, r9, r5
 80004ba:	fa1f f883 	uxth.w	r8, r3
 80004be:	ea44 4505 	orr.w	r5, r4, r5, lsl #16
 80004c2:	fb09 f408 	mul.w	r4, r9, r8
 80004c6:	42ac      	cmp	r4, r5
 80004c8:	fa02 f201 	lsl.w	r2, r2, r1
 80004cc:	fa00 fa01 	lsl.w	sl, r0, r1
 80004d0:	d908      	bls.n	80004e4 <__udivmoddi4+0x244>
 80004d2:	18ed      	adds	r5, r5, r3
 80004d4:	f109 30ff 	add.w	r0, r9, #4294967295
 80004d8:	d243      	bcs.n	8000562 <__udivmoddi4+0x2c2>
 80004da:	42ac      	cmp	r4, r5
 80004dc:	d941      	bls.n	8000562 <__udivmoddi4+0x2c2>
 80004de:	f1a9 0902 	sub.w	r9, r9, #2
 80004e2:	441d      	add	r5, r3
 80004e4:	1b2d      	subs	r5, r5, r4
 80004e6:	fa1f fe8e 	uxth.w	lr, lr
 80004ea:	fbb5 f0fc 	udiv	r0, r5, ip
 80004ee:	fb0c 5510 	mls	r5, ip, r0, r5
 80004f2:	ea4e 4405 	orr.w	r4, lr, r5, lsl #16
 80004f6:	fb00 f808 	mul.w	r8, r0, r8
 80004fa:	45a0      	cmp	r8, r4
 80004fc:	d907      	bls.n	800050e <__udivmoddi4+0x26e>
 80004fe:	18e4      	adds	r4, r4, r3
 8000500:	f100 35ff 	add.w	r5, r0, #4294967295
 8000504:	d229      	bcs.n	800055a <__udivmoddi4+0x2ba>
 8000506:	45a0      	cmp	r8, r4
 8000508:	d927      	bls.n	800055a <__udivmoddi4+0x2ba>
 800050a:	3802      	subs	r0, #2
 800050c:	441c      	add	r4, r3
 800050e:	ea40 4009 	orr.w	r0, r0, r9, lsl #16
 8000512:	eba4 0408 	sub.w	r4, r4, r8
 8000516:	fba0 8902 	umull	r8, r9, r0, r2
 800051a:	454c      	cmp	r4, r9
 800051c:	46c6      	mov	lr, r8
 800051e:	464d      	mov	r5, r9
 8000520:	d315      	bcc.n	800054e <__udivmoddi4+0x2ae>
 8000522:	d012      	beq.n	800054a <__udivmoddi4+0x2aa>
 8000524:	b156      	cbz	r6, 800053c <__udivmoddi4+0x29c>
 8000526:	ebba 030e 	subs.w	r3, sl, lr
 800052a:	eb64 0405 	sbc.w	r4, r4, r5
 800052e:	fa04 f707 	lsl.w	r7, r4, r7
 8000532:	40cb      	lsrs	r3, r1
 8000534:	431f      	orrs	r7, r3
 8000536:	40cc      	lsrs	r4, r1
 8000538:	6037      	str	r7, [r6, #0]
 800053a:	6074      	str	r4, [r6, #4]
 800053c:	2100      	movs	r1, #0
 800053e:	e8bd 87f0 	ldmia.w	sp!, {r4, r5, r6, r7, r8, r9, sl, pc}
 8000542:	4618      	mov	r0, r3
 8000544:	e6f8      	b.n	8000338 <__udivmoddi4+0x98>
 8000546:	4690      	mov	r8, r2
 8000548:	e6e0      	b.n	800030c <__udivmoddi4+0x6c>
 800054a:	45c2      	cmp	sl, r8
 800054c:	d2ea      	bcs.n	8000524 <__udivmoddi4+0x284>
 800054e:	ebb8 0e02 	subs.w	lr, r8, r2
 8000552:	eb69 0503 	sbc.w	r5, r9, r3
 8000556:	3801      	subs	r0, #1
 8000558:	e7e4      	b.n	8000524 <__udivmoddi4+0x284>
 800055a:	4628      	mov	r0, r5
 800055c:	e7d7      	b.n	800050e <__udivmoddi4+0x26e>
 800055e:	4640      	mov	r0, r8
 8000560:	e791      	b.n	8000486 <__udivmoddi4+0x1e6>
 8000562:	4681      	mov	r9, r0
 8000564:	e7be      	b.n	80004e4 <__udivmoddi4+0x244>
 8000566:	4601      	mov	r1, r0
 8000568:	e778      	b.n	800045c <__udivmoddi4+0x1bc>
 800056a:	3802      	subs	r0, #2
 800056c:	443c      	add	r4, r7
 800056e:	e745      	b.n	80003fc <__udivmoddi4+0x15c>
 8000570:	4608      	mov	r0, r1
 8000572:	e708      	b.n	8000386 <__udivmoddi4+0xe6>
 8000574:	f1a8 0802 	sub.w	r8, r8, #2
 8000578:	443d      	add	r5, r7
 800057a:	e72b      	b.n	80003d4 <__udivmoddi4+0x134>

0800057c <__aeabi_idiv0>:
 800057c:	4770      	bx	lr
 800057e:	bf00      	nop

08000580 <HAL_InitTick>:
 8000580:	b538      	push	{r3, r4, r5, lr}
 8000582:	4a0e      	ldr	r2, [pc, #56]	; (80005bc <HAL_InitTick+0x3c>)
 8000584:	4b0e      	ldr	r3, [pc, #56]	; (80005c0 <HAL_InitTick+0x40>)
 8000586:	4605      	mov	r5, r0
 8000588:	7818      	ldrb	r0, [r3, #0]
 800058a:	f44f 737a 	mov.w	r3, #1000	; 0x3e8
 800058e:	fbb3 f3f0 	udiv	r3, r3, r0
 8000592:	6810      	ldr	r0, [r2, #0]
 8000594:	fbb0 f0f3 	udiv	r0, r0, r3
 8000598:	f000 f8a8 	bl	80006ec <HAL_SYSTICK_Config>
 800059c:	4604      	mov	r4, r0
 800059e:	b958      	cbnz	r0, 80005b8 <HAL_InitTick+0x38>
 80005a0:	2d0f      	cmp	r5, #15
 80005a2:	d809      	bhi.n	80005b8 <HAL_InitTick+0x38>
 80005a4:	4602      	mov	r2, r0
 80005a6:	4629      	mov	r1, r5
 80005a8:	f04f 30ff 	mov.w	r0, #4294967295
 80005ac:	f000 f85e 	bl	800066c <HAL_NVIC_SetPriority>
 80005b0:	4b04      	ldr	r3, [pc, #16]	; (80005c4 <HAL_InitTick+0x44>)
 80005b2:	4620      	mov	r0, r4
 80005b4:	601d      	str	r5, [r3, #0]
 80005b6:	bd38      	pop	{r3, r4, r5, pc}
 80005b8:	2001      	movs	r0, #1
 80005ba:	bd38      	pop	{r3, r4, r5, pc}
 80005bc:	20000118 	.word	0x20000118
 80005c0:	20000000 	.word	0x20000000
 80005c4:	20000004 	.word	0x20000004

080005c8 <HAL_Init>:
 80005c8:	b508      	push	{r3, lr}
 80005ca:	4b0b      	ldr	r3, [pc, #44]	; (80005f8 <HAL_Init+0x30>)
 80005cc:	681a      	ldr	r2, [r3, #0]
 80005ce:	f442 7200 	orr.w	r2, r2, #512	; 0x200
 80005d2:	601a      	str	r2, [r3, #0]
 80005d4:	681a      	ldr	r2, [r3, #0]
 80005d6:	f442 6280 	orr.w	r2, r2, #1024	; 0x400
 80005da:	601a      	str	r2, [r3, #0]
 80005dc:	681a      	ldr	r2, [r3, #0]
 80005de:	f442 7280 	orr.w	r2, r2, #256	; 0x100
 80005e2:	601a      	str	r2, [r3, #0]
 80005e4:	2003      	movs	r0, #3
 80005e6:	f000 f82f 	bl	8000648 <HAL_NVIC_SetPriorityGrouping>
 80005ea:	2000      	movs	r0, #0
 80005ec:	f7ff ffc8 	bl	8000580 <HAL_InitTick>
 80005f0:	f002 f961 	bl	80028b6 <HAL_MspInit>
 80005f4:	2000      	movs	r0, #0
 80005f6:	bd08      	pop	{r3, pc}
 80005f8:	40023c00 	.word	0x40023c00

080005fc <HAL_IncTick>:
 80005fc:	4a03      	ldr	r2, [pc, #12]	; (800060c <HAL_IncTick+0x10>)
 80005fe:	4b04      	ldr	r3, [pc, #16]	; (8000610 <HAL_IncTick+0x14>)
 8000600:	6811      	ldr	r1, [r2, #0]
 8000602:	781b      	ldrb	r3, [r3, #0]
 8000604:	440b      	add	r3, r1
 8000606:	6013      	str	r3, [r2, #0]
 8000608:	4770      	bx	lr
 800060a:	bf00      	nop
 800060c:	200001f4 	.word	0x200001f4
 8000610:	20000000 	.word	0x20000000

08000614 <HAL_GetTick>:
 8000614:	4b01      	ldr	r3, [pc, #4]	; (800061c <HAL_GetTick+0x8>)
 8000616:	6818      	ldr	r0, [r3, #0]
 8000618:	4770      	bx	lr
 800061a:	bf00      	nop
 800061c:	200001f4 	.word	0x200001f4

08000620 <HAL_Delay>:
 8000620:	b538      	push	{r3, r4, r5, lr}
 8000622:	4604      	mov	r4, r0
 8000624:	f7ff fff6 	bl	8000614 <HAL_GetTick>
 8000628:	1c63      	adds	r3, r4, #1
 800062a:	bf1c      	itt	ne
 800062c:	4b05      	ldrne	r3, [pc, #20]	; (8000644 <HAL_Delay+0x24>)
 800062e:	781b      	ldrbne	r3, [r3, #0]
 8000630:	4605      	mov	r5, r0
 8000632:	bf18      	it	ne
 8000634:	18e4      	addne	r4, r4, r3
 8000636:	f7ff ffed 	bl	8000614 <HAL_GetTick>
 800063a:	1b40      	subs	r0, r0, r5
 800063c:	4284      	cmp	r4, r0
 800063e:	d8fa      	bhi.n	8000636 <HAL_Delay+0x16>
 8000640:	bd38      	pop	{r3, r4, r5, pc}
 8000642:	bf00      	nop
 8000644:	20000000 	.word	0x20000000

08000648 <HAL_NVIC_SetPriorityGrouping>:
 8000648:	4a07      	ldr	r2, [pc, #28]	; (8000668 <HAL_NVIC_SetPriorityGrouping+0x20>)
 800064a:	68d3      	ldr	r3, [r2, #12]
 800064c:	f423 63e0 	bic.w	r3, r3, #1792	; 0x700
 8000650:	041b      	lsls	r3, r3, #16
 8000652:	0c1b      	lsrs	r3, r3, #16
 8000654:	f043 63bf 	orr.w	r3, r3, #100139008	; 0x5f80000
 8000658:	0200      	lsls	r0, r0, #8
 800065a:	f443 3300 	orr.w	r3, r3, #131072	; 0x20000
 800065e:	f400 60e0 	and.w	r0, r0, #1792	; 0x700
 8000662:	4303      	orrs	r3, r0
 8000664:	60d3      	str	r3, [r2, #12]
 8000666:	4770      	bx	lr
 8000668:	e000ed00 	.word	0xe000ed00

0800066c <HAL_NVIC_SetPriority>:
 800066c:	4b17      	ldr	r3, [pc, #92]	; (80006cc <HAL_NVIC_SetPriority+0x60>)
 800066e:	b530      	push	{r4, r5, lr}
 8000670:	68dc      	ldr	r4, [r3, #12]
 8000672:	f3c4 2402 	ubfx	r4, r4, #8, #3
 8000676:	f1c4 0307 	rsb	r3, r4, #7
 800067a:	1d25      	adds	r5, r4, #4
 800067c:	2b04      	cmp	r3, #4
 800067e:	bf28      	it	cs
 8000680:	2304      	movcs	r3, #4
 8000682:	2d06      	cmp	r5, #6
 8000684:	f04f 0501 	mov.w	r5, #1
 8000688:	fa05 f303 	lsl.w	r3, r5, r3
 800068c:	f103 33ff 	add.w	r3, r3, #4294967295
 8000690:	bf8c      	ite	hi
 8000692:	3c03      	subhi	r4, #3
 8000694:	2400      	movls	r4, #0
 8000696:	4019      	ands	r1, r3
 8000698:	40a1      	lsls	r1, r4
 800069a:	fa05 f404 	lsl.w	r4, r5, r4
 800069e:	3c01      	subs	r4, #1
 80006a0:	4022      	ands	r2, r4
 80006a2:	2800      	cmp	r0, #0
 80006a4:	ea42 0201 	orr.w	r2, r2, r1
 80006a8:	ea4f 1202 	mov.w	r2, r2, lsl #4
 80006ac:	bfaf      	iteee	ge
 80006ae:	f100 4060 	addge.w	r0, r0, #3758096384	; 0xe0000000
 80006b2:	f000 000f 	andlt.w	r0, r0, #15
 80006b6:	4b06      	ldrlt	r3, [pc, #24]	; (80006d0 <HAL_NVIC_SetPriority+0x64>)
 80006b8:	b2d2      	uxtblt	r2, r2
 80006ba:	bfa5      	ittet	ge
 80006bc:	f500 4061 	addge.w	r0, r0, #57600	; 0xe100
 80006c0:	b2d2      	uxtbge	r2, r2
 80006c2:	541a      	strblt	r2, [r3, r0]
 80006c4:	f880 2300 	strbge.w	r2, [r0, #768]	; 0x300
 80006c8:	bd30      	pop	{r4, r5, pc}
 80006ca:	bf00      	nop
 80006cc:	e000ed00 	.word	0xe000ed00
 80006d0:	e000ed14 	.word	0xe000ed14

080006d4 <HAL_NVIC_EnableIRQ>:
 80006d4:	0942      	lsrs	r2, r0, #5
 80006d6:	2301      	movs	r3, #1
 80006d8:	f000 001f 	and.w	r0, r0, #31
 80006dc:	fa03 f000 	lsl.w	r0, r3, r0
 80006e0:	4b01      	ldr	r3, [pc, #4]	; (80006e8 <HAL_NVIC_EnableIRQ+0x14>)
 80006e2:	f843 0022 	str.w	r0, [r3, r2, lsl #2]
 80006e6:	4770      	bx	lr
 80006e8:	e000e100 	.word	0xe000e100

080006ec <HAL_SYSTICK_Config>:
 80006ec:	3801      	subs	r0, #1
 80006ee:	f1b0 7f80 	cmp.w	r0, #16777216	; 0x1000000
 80006f2:	d20a      	bcs.n	800070a <HAL_SYSTICK_Config+0x1e>
 80006f4:	4b06      	ldr	r3, [pc, #24]	; (8000710 <HAL_SYSTICK_Config+0x24>)
 80006f6:	4a07      	ldr	r2, [pc, #28]	; (8000714 <HAL_SYSTICK_Config+0x28>)
 80006f8:	6058      	str	r0, [r3, #4]
 80006fa:	21f0      	movs	r1, #240	; 0xf0
 80006fc:	f882 1023 	strb.w	r1, [r2, #35]	; 0x23
 8000700:	2000      	movs	r0, #0
 8000702:	2207      	movs	r2, #7
 8000704:	6098      	str	r0, [r3, #8]
 8000706:	601a      	str	r2, [r3, #0]
 8000708:	4770      	bx	lr
 800070a:	2001      	movs	r0, #1
 800070c:	4770      	bx	lr
 800070e:	bf00      	nop
 8000710:	e000e010 	.word	0xe000e010
 8000714:	e000ed00 	.word	0xe000ed00

08000718 <HAL_SYSTICK_CLKSourceConfig>:
 8000718:	4b04      	ldr	r3, [pc, #16]	; (800072c <HAL_SYSTICK_CLKSourceConfig+0x14>)
 800071a:	681a      	ldr	r2, [r3, #0]
 800071c:	2804      	cmp	r0, #4
 800071e:	bf0c      	ite	eq
 8000720:	f042 0204 	orreq.w	r2, r2, #4
 8000724:	f022 0204 	bicne.w	r2, r2, #4
 8000728:	601a      	str	r2, [r3, #0]
 800072a:	4770      	bx	lr
 800072c:	e000e010 	.word	0xe000e010

08000730 <HAL_SYSTICK_Callback>:
 8000730:	4770      	bx	lr

08000732 <HAL_SYSTICK_IRQHandler>:
 8000732:	b508      	push	{r3, lr}
 8000734:	f7ff fffc 	bl	8000730 <HAL_SYSTICK_Callback>
 8000738:	bd08      	pop	{r3, pc}
	...

0800073c <HAL_GPIO_Init>:
 800073c:	e92d 4ff0 	stmdb	sp!, {r4, r5, r6, r7, r8, r9, sl, fp, lr}
 8000740:	b085      	sub	sp, #20
 8000742:	680b      	ldr	r3, [r1, #0]
 8000744:	f8df 81ac 	ldr.w	r8, [pc, #428]	; 80008f4 <HAL_GPIO_Init+0x1b8>
 8000748:	4a68      	ldr	r2, [pc, #416]	; (80008ec <HAL_GPIO_Init+0x1b0>)
 800074a:	f8df 91ac 	ldr.w	r9, [pc, #428]	; 80008f8 <HAL_GPIO_Init+0x1bc>
 800074e:	9301      	str	r3, [sp, #4]
 8000750:	2300      	movs	r3, #0
 8000752:	f04f 0e01 	mov.w	lr, #1
 8000756:	9c01      	ldr	r4, [sp, #4]
 8000758:	fa0e fe03 	lsl.w	lr, lr, r3
 800075c:	ea0e 0604 	and.w	r6, lr, r4
 8000760:	45b6      	cmp	lr, r6
 8000762:	f040 80ae 	bne.w	80008c2 <HAL_GPIO_Init+0x186>
 8000766:	684c      	ldr	r4, [r1, #4]
 8000768:	f024 0710 	bic.w	r7, r4, #16
 800076c:	2f02      	cmp	r7, #2
 800076e:	d116      	bne.n	800079e <HAL_GPIO_Init+0x62>
 8000770:	ea4f 0ad3 	mov.w	sl, r3, lsr #3
 8000774:	eb00 0a8a 	add.w	sl, r0, sl, lsl #2
 8000778:	f003 0b07 	and.w	fp, r3, #7
 800077c:	f8da 5020 	ldr.w	r5, [sl, #32]
 8000780:	ea4f 0b8b 	mov.w	fp, fp, lsl #2
 8000784:	f04f 0c0f 	mov.w	ip, #15
 8000788:	fa0c fc0b 	lsl.w	ip, ip, fp
 800078c:	ea25 0c0c 	bic.w	ip, r5, ip
 8000790:	690d      	ldr	r5, [r1, #16]
 8000792:	fa05 f50b 	lsl.w	r5, r5, fp
 8000796:	ea45 050c 	orr.w	r5, r5, ip
 800079a:	f8ca 5020 	str.w	r5, [sl, #32]
 800079e:	ea4f 0a43 	mov.w	sl, r3, lsl #1
 80007a2:	2503      	movs	r5, #3
 80007a4:	f8d0 b000 	ldr.w	fp, [r0]
 80007a8:	fa05 f50a 	lsl.w	r5, r5, sl
 80007ac:	43ed      	mvns	r5, r5
 80007ae:	f004 0c03 	and.w	ip, r4, #3
 80007b2:	ea0b 0b05 	and.w	fp, fp, r5
 80007b6:	fa0c fc0a 	lsl.w	ip, ip, sl
 80007ba:	3f01      	subs	r7, #1
 80007bc:	ea4c 0c0b 	orr.w	ip, ip, fp
 80007c0:	2f01      	cmp	r7, #1
 80007c2:	f8c0 c000 	str.w	ip, [r0]
 80007c6:	d811      	bhi.n	80007ec <HAL_GPIO_Init+0xb0>
 80007c8:	6887      	ldr	r7, [r0, #8]
 80007ca:	ea07 0b05 	and.w	fp, r7, r5
 80007ce:	68cf      	ldr	r7, [r1, #12]
 80007d0:	fa07 fc0a 	lsl.w	ip, r7, sl
 80007d4:	ea4c 070b 	orr.w	r7, ip, fp
 80007d8:	6087      	str	r7, [r0, #8]
 80007da:	6847      	ldr	r7, [r0, #4]
 80007dc:	ea27 0e0e 	bic.w	lr, r7, lr
 80007e0:	f3c4 1700 	ubfx	r7, r4, #4, #1
 80007e4:	409f      	lsls	r7, r3
 80007e6:	ea47 070e 	orr.w	r7, r7, lr
 80007ea:	6047      	str	r7, [r0, #4]
 80007ec:	68c7      	ldr	r7, [r0, #12]
 80007ee:	403d      	ands	r5, r7
 80007f0:	688f      	ldr	r7, [r1, #8]
 80007f2:	fa07 f70a 	lsl.w	r7, r7, sl
 80007f6:	433d      	orrs	r5, r7
 80007f8:	60c5      	str	r5, [r0, #12]
 80007fa:	00e5      	lsls	r5, r4, #3
 80007fc:	d561      	bpl.n	80008c2 <HAL_GPIO_Init+0x186>
 80007fe:	f04f 0b00 	mov.w	fp, #0
 8000802:	f8cd b00c 	str.w	fp, [sp, #12]
 8000806:	f8d8 7044 	ldr.w	r7, [r8, #68]	; 0x44
 800080a:	4d39      	ldr	r5, [pc, #228]	; (80008f0 <HAL_GPIO_Init+0x1b4>)
 800080c:	f447 4780 	orr.w	r7, r7, #16384	; 0x4000
 8000810:	f8c8 7044 	str.w	r7, [r8, #68]	; 0x44
 8000814:	f8d8 7044 	ldr.w	r7, [r8, #68]	; 0x44
 8000818:	f407 4780 	and.w	r7, r7, #16384	; 0x4000
 800081c:	9703      	str	r7, [sp, #12]
 800081e:	9f03      	ldr	r7, [sp, #12]
 8000820:	f023 0703 	bic.w	r7, r3, #3
 8000824:	f107 4780 	add.w	r7, r7, #1073741824	; 0x40000000
 8000828:	f507 379c 	add.w	r7, r7, #79872	; 0x13800
 800082c:	f003 0c03 	and.w	ip, r3, #3
 8000830:	f8d7 a008 	ldr.w	sl, [r7, #8]
 8000834:	ea4f 0c8c 	mov.w	ip, ip, lsl #2
 8000838:	f04f 0e0f 	mov.w	lr, #15
 800083c:	fa0e fe0c 	lsl.w	lr, lr, ip
 8000840:	42a8      	cmp	r0, r5
 8000842:	ea2a 0e0e 	bic.w	lr, sl, lr
 8000846:	d043      	beq.n	80008d0 <HAL_GPIO_Init+0x194>
 8000848:	f505 6580 	add.w	r5, r5, #1024	; 0x400
 800084c:	42a8      	cmp	r0, r5
 800084e:	d041      	beq.n	80008d4 <HAL_GPIO_Init+0x198>
 8000850:	f505 6580 	add.w	r5, r5, #1024	; 0x400
 8000854:	42a8      	cmp	r0, r5
 8000856:	d03f      	beq.n	80008d8 <HAL_GPIO_Init+0x19c>
 8000858:	f505 6580 	add.w	r5, r5, #1024	; 0x400
 800085c:	42a8      	cmp	r0, r5
 800085e:	d03d      	beq.n	80008dc <HAL_GPIO_Init+0x1a0>
 8000860:	f505 6580 	add.w	r5, r5, #1024	; 0x400
 8000864:	42a8      	cmp	r0, r5
 8000866:	d03b      	beq.n	80008e0 <HAL_GPIO_Init+0x1a4>
 8000868:	4548      	cmp	r0, r9
 800086a:	d03b      	beq.n	80008e4 <HAL_GPIO_Init+0x1a8>
 800086c:	f505 6500 	add.w	r5, r5, #2048	; 0x800
 8000870:	42a8      	cmp	r0, r5
 8000872:	d039      	beq.n	80008e8 <HAL_GPIO_Init+0x1ac>
 8000874:	f505 6580 	add.w	r5, r5, #1024	; 0x400
 8000878:	42a8      	cmp	r0, r5
 800087a:	bf14      	ite	ne
 800087c:	2508      	movne	r5, #8
 800087e:	2507      	moveq	r5, #7
 8000880:	fa05 f50c 	lsl.w	r5, r5, ip
 8000884:	ea45 050e 	orr.w	r5, r5, lr
 8000888:	60bd      	str	r5, [r7, #8]
 800088a:	6815      	ldr	r5, [r2, #0]
 800088c:	43f7      	mvns	r7, r6
 800088e:	f414 3f80 	tst.w	r4, #65536	; 0x10000
 8000892:	bf0c      	ite	eq
 8000894:	403d      	andeq	r5, r7
 8000896:	4335      	orrne	r5, r6
 8000898:	6015      	str	r5, [r2, #0]
 800089a:	6855      	ldr	r5, [r2, #4]
 800089c:	f414 3f00 	tst.w	r4, #131072	; 0x20000
 80008a0:	bf0c      	ite	eq
 80008a2:	403d      	andeq	r5, r7
 80008a4:	4335      	orrne	r5, r6
 80008a6:	6055      	str	r5, [r2, #4]
 80008a8:	6895      	ldr	r5, [r2, #8]
 80008aa:	f414 1f80 	tst.w	r4, #1048576	; 0x100000
 80008ae:	bf0c      	ite	eq
 80008b0:	403d      	andeq	r5, r7
 80008b2:	4335      	orrne	r5, r6
 80008b4:	6095      	str	r5, [r2, #8]
 80008b6:	68d5      	ldr	r5, [r2, #12]
 80008b8:	02a4      	lsls	r4, r4, #10
 80008ba:	bf54      	ite	pl
 80008bc:	403d      	andpl	r5, r7
 80008be:	4335      	orrmi	r5, r6
 80008c0:	60d5      	str	r5, [r2, #12]
 80008c2:	3301      	adds	r3, #1
 80008c4:	2b10      	cmp	r3, #16
 80008c6:	f47f af44 	bne.w	8000752 <HAL_GPIO_Init+0x16>
 80008ca:	b005      	add	sp, #20
 80008cc:	e8bd 8ff0 	ldmia.w	sp!, {r4, r5, r6, r7, r8, r9, sl, fp, pc}
 80008d0:	465d      	mov	r5, fp
 80008d2:	e7d5      	b.n	8000880 <HAL_GPIO_Init+0x144>
 80008d4:	2501      	movs	r5, #1
 80008d6:	e7d3      	b.n	8000880 <HAL_GPIO_Init+0x144>
 80008d8:	2502      	movs	r5, #2
 80008da:	e7d1      	b.n	8000880 <HAL_GPIO_Init+0x144>
 80008dc:	2503      	movs	r5, #3
 80008de:	e7cf      	b.n	8000880 <HAL_GPIO_Init+0x144>
 80008e0:	2504      	movs	r5, #4
 80008e2:	e7cd      	b.n	8000880 <HAL_GPIO_Init+0x144>
 80008e4:	2505      	movs	r5, #5
 80008e6:	e7cb      	b.n	8000880 <HAL_GPIO_Init+0x144>
 80008e8:	2506      	movs	r5, #6
 80008ea:	e7c9      	b.n	8000880 <HAL_GPIO_Init+0x144>
 80008ec:	40013c00 	.word	0x40013c00
 80008f0:	40020000 	.word	0x40020000
 80008f4:	40023800 	.word	0x40023800
 80008f8:	40021400 	.word	0x40021400

080008fc <HAL_GPIO_ReadPin>:
 80008fc:	6903      	ldr	r3, [r0, #16]
 80008fe:	4219      	tst	r1, r3
 8000900:	bf14      	ite	ne
 8000902:	2001      	movne	r0, #1
 8000904:	2000      	moveq	r0, #0
 8000906:	4770      	bx	lr

08000908 <HAL_PCD_Init>:
 8000908:	b5f0      	push	{r4, r5, r6, r7, lr}
 800090a:	4606      	mov	r6, r0
 800090c:	b08b      	sub	sp, #44	; 0x2c
 800090e:	2800      	cmp	r0, #0
 8000910:	d064      	beq.n	80009dc <HAL_PCD_Init+0xd4>
 8000912:	2303      	movs	r3, #3
 8000914:	4634      	mov	r4, r6
 8000916:	f880 33b9 	strb.w	r3, [r0, #953]	; 0x3b9
 800091a:	f002 f89f 	bl	8002a5c <HAL_PCD_MspInit>
 800091e:	f854 0b10 	ldr.w	r0, [r4], #16
 8000922:	f000 fed5 	bl	80016d0 <USB_DisableGlobalInt>
 8000926:	cc0f      	ldmia	r4!, {r0, r1, r2, r3}
 8000928:	466d      	mov	r5, sp
 800092a:	c50f      	stmia	r5!, {r0, r1, r2, r3}
 800092c:	cc0f      	ldmia	r4!, {r0, r1, r2, r3}
 800092e:	c50f      	stmia	r5!, {r0, r1, r2, r3}
 8000930:	e894 0003 	ldmia.w	r4, {r0, r1}
 8000934:	e885 0003 	stmia.w	r5, {r0, r1}
 8000938:	1d37      	adds	r7, r6, #4
 800093a:	e897 000e 	ldmia.w	r7, {r1, r2, r3}
 800093e:	6830      	ldr	r0, [r6, #0]
 8000940:	f000 fe86 	bl	8001650 <USB_CoreInit>
 8000944:	2100      	movs	r1, #0
 8000946:	6830      	ldr	r0, [r6, #0]
 8000948:	f000 fec8 	bl	80016dc <USB_SetCurrentMode>
 800094c:	2100      	movs	r1, #0
 800094e:	4633      	mov	r3, r6
 8000950:	4632      	mov	r2, r6
 8000952:	f106 0410 	add.w	r4, r6, #16
 8000956:	2501      	movs	r5, #1
 8000958:	4608      	mov	r0, r1
 800095a:	f882 1038 	strb.w	r1, [r2, #56]	; 0x38
 800095e:	87d1      	strh	r1, [r2, #62]	; 0x3e
 8000960:	3101      	adds	r1, #1
 8000962:	290f      	cmp	r1, #15
 8000964:	f882 5039 	strb.w	r5, [r2, #57]	; 0x39
 8000968:	f882 003b 	strb.w	r0, [r2, #59]	; 0x3b
 800096c:	6410      	str	r0, [r2, #64]	; 0x40
 800096e:	6450      	str	r0, [r2, #68]	; 0x44
 8000970:	64d0      	str	r0, [r2, #76]	; 0x4c
 8000972:	f102 021c 	add.w	r2, r2, #28
 8000976:	d1f0      	bne.n	800095a <HAL_PCD_Init+0x52>
 8000978:	2200      	movs	r2, #0
 800097a:	f8d6 e000 	ldr.w	lr, [r6]
 800097e:	4611      	mov	r1, r2
 8000980:	f102 0040 	add.w	r0, r2, #64	; 0x40
 8000984:	f883 21f8 	strb.w	r2, [r3, #504]	; 0x1f8
 8000988:	87da      	strh	r2, [r3, #62]	; 0x3e
 800098a:	eb0e 0080 	add.w	r0, lr, r0, lsl #2
 800098e:	3201      	adds	r2, #1
 8000990:	2a0f      	cmp	r2, #15
 8000992:	f883 11f9 	strb.w	r1, [r3, #505]	; 0x1f9
 8000996:	f883 11fb 	strb.w	r1, [r3, #507]	; 0x1fb
 800099a:	f8c3 1200 	str.w	r1, [r3, #512]	; 0x200
 800099e:	f8c3 1204 	str.w	r1, [r3, #516]	; 0x204
 80009a2:	f8c3 120c 	str.w	r1, [r3, #524]	; 0x20c
 80009a6:	6041      	str	r1, [r0, #4]
 80009a8:	f103 031c 	add.w	r3, r3, #28
 80009ac:	d1e8      	bne.n	8000980 <HAL_PCD_Init+0x78>
 80009ae:	cc0f      	ldmia	r4!, {r0, r1, r2, r3}
 80009b0:	466d      	mov	r5, sp
 80009b2:	c50f      	stmia	r5!, {r0, r1, r2, r3}
 80009b4:	cc0f      	ldmia	r4!, {r0, r1, r2, r3}
 80009b6:	c50f      	stmia	r5!, {r0, r1, r2, r3}
 80009b8:	e894 0003 	ldmia.w	r4, {r0, r1}
 80009bc:	e885 0003 	stmia.w	r5, {r0, r1}
 80009c0:	4670      	mov	r0, lr
 80009c2:	e897 000e 	ldmia.w	r7, {r1, r2, r3}
 80009c6:	f000 fea1 	bl	800170c <USB_DevInit>
 80009ca:	2301      	movs	r3, #1
 80009cc:	f886 33b9 	strb.w	r3, [r6, #953]	; 0x3b9
 80009d0:	6830      	ldr	r0, [r6, #0]
 80009d2:	f001 f9be 	bl	8001d52 <USB_DevDisconnect>
 80009d6:	2000      	movs	r0, #0
 80009d8:	b00b      	add	sp, #44	; 0x2c
 80009da:	bdf0      	pop	{r4, r5, r6, r7, pc}
 80009dc:	2001      	movs	r0, #1
 80009de:	e7fb      	b.n	80009d8 <HAL_PCD_Init+0xd0>

080009e0 <HAL_PCD_Start>:
 80009e0:	f890 33b8 	ldrb.w	r3, [r0, #952]	; 0x3b8
 80009e4:	2b01      	cmp	r3, #1
 80009e6:	b510      	push	{r4, lr}
 80009e8:	4604      	mov	r4, r0
 80009ea:	d00c      	beq.n	8000a06 <HAL_PCD_Start+0x26>
 80009ec:	2301      	movs	r3, #1
 80009ee:	f880 33b8 	strb.w	r3, [r0, #952]	; 0x3b8
 80009f2:	6800      	ldr	r0, [r0, #0]
 80009f4:	f001 f9a1 	bl	8001d3a <USB_DevConnect>
 80009f8:	6820      	ldr	r0, [r4, #0]
 80009fa:	f000 fe63 	bl	80016c4 <USB_EnableGlobalInt>
 80009fe:	2000      	movs	r0, #0
 8000a00:	f884 03b8 	strb.w	r0, [r4, #952]	; 0x3b8
 8000a04:	bd10      	pop	{r4, pc}
 8000a06:	2002      	movs	r0, #2
 8000a08:	bd10      	pop	{r4, pc}
	...

08000a0c <HAL_PCD_IRQHandler>:
 8000a0c:	e92d 4ff0 	stmdb	sp!, {r4, r5, r6, r7, r8, r9, sl, fp, lr}
 8000a10:	f8d0 9000 	ldr.w	r9, [r0]
 8000a14:	b087      	sub	sp, #28
 8000a16:	4604      	mov	r4, r0
 8000a18:	4648      	mov	r0, r9
 8000a1a:	f001 f9d4 	bl	8001dc6 <USB_GetMode>
 8000a1e:	9002      	str	r0, [sp, #8]
 8000a20:	2800      	cmp	r0, #0
 8000a22:	f040 812e 	bne.w	8000c82 <HAL_PCD_IRQHandler+0x276>
 8000a26:	6820      	ldr	r0, [r4, #0]
 8000a28:	f001 f99f 	bl	8001d6a <USB_ReadInterrupts>
 8000a2c:	2800      	cmp	r0, #0
 8000a2e:	f000 8128 	beq.w	8000c82 <HAL_PCD_IRQHandler+0x276>
 8000a32:	6820      	ldr	r0, [r4, #0]
 8000a34:	f001 f999 	bl	8001d6a <USB_ReadInterrupts>
 8000a38:	0785      	lsls	r5, r0, #30
 8000a3a:	bf48      	it	mi
 8000a3c:	6822      	ldrmi	r2, [r4, #0]
 8000a3e:	6820      	ldr	r0, [r4, #0]
 8000a40:	bf42      	ittt	mi
 8000a42:	6953      	ldrmi	r3, [r2, #20]
 8000a44:	f003 0302 	andmi.w	r3, r3, #2
 8000a48:	6153      	strmi	r3, [r2, #20]
 8000a4a:	f001 f98e 	bl	8001d6a <USB_ReadInterrupts>
 8000a4e:	f410 2500 	ands.w	r5, r0, #524288	; 0x80000
 8000a52:	d00a      	beq.n	8000a6a <HAL_PCD_IRQHandler+0x5e>
 8000a54:	6820      	ldr	r0, [r4, #0]
 8000a56:	f001 f98c 	bl	8001d72 <USB_ReadDevAllOutEpInterrupt>
 8000a5a:	f509 6630 	add.w	r6, r9, #2816	; 0xb00
 8000a5e:	4607      	mov	r7, r0
 8000a60:	46a2      	mov	sl, r4
 8000a62:	2500      	movs	r5, #0
 8000a64:	2f00      	cmp	r7, #0
 8000a66:	f040 810f 	bne.w	8000c88 <HAL_PCD_IRQHandler+0x27c>
 8000a6a:	6820      	ldr	r0, [r4, #0]
 8000a6c:	f001 f97d 	bl	8001d6a <USB_ReadInterrupts>
 8000a70:	0341      	lsls	r1, r0, #13
 8000a72:	d50b      	bpl.n	8000a8c <HAL_PCD_IRQHandler+0x80>
 8000a74:	6820      	ldr	r0, [r4, #0]
 8000a76:	f001 f984 	bl	8001d82 <USB_ReadDevAllInEpInterrupt>
 8000a7a:	4626      	mov	r6, r4
 8000a7c:	9003      	str	r0, [sp, #12]
 8000a7e:	f509 6810 	add.w	r8, r9, #2304	; 0x900
 8000a82:	2500      	movs	r5, #0
 8000a84:	9b03      	ldr	r3, [sp, #12]
 8000a86:	2b00      	cmp	r3, #0
 8000a88:	f040 813f 	bne.w	8000d0a <HAL_PCD_IRQHandler+0x2fe>
 8000a8c:	6820      	ldr	r0, [r4, #0]
 8000a8e:	f001 f96c 	bl	8001d6a <USB_ReadInterrupts>
 8000a92:	2800      	cmp	r0, #0
 8000a94:	da0d      	bge.n	8000ab2 <HAL_PCD_IRQHandler+0xa6>
 8000a96:	f8d9 3804 	ldr.w	r3, [r9, #2052]	; 0x804
 8000a9a:	f023 0301 	bic.w	r3, r3, #1
 8000a9e:	f8c9 3804 	str.w	r3, [r9, #2052]	; 0x804
 8000aa2:	4620      	mov	r0, r4
 8000aa4:	f002 f850 	bl	8002b48 <HAL_PCD_ResumeCallback>
 8000aa8:	6822      	ldr	r2, [r4, #0]
 8000aaa:	6953      	ldr	r3, [r2, #20]
 8000aac:	f003 4300 	and.w	r3, r3, #2147483648	; 0x80000000
 8000ab0:	6153      	str	r3, [r2, #20]
 8000ab2:	6820      	ldr	r0, [r4, #0]
 8000ab4:	f001 f959 	bl	8001d6a <USB_ReadInterrupts>
 8000ab8:	0506      	lsls	r6, r0, #20
 8000aba:	d50b      	bpl.n	8000ad4 <HAL_PCD_IRQHandler+0xc8>
 8000abc:	f8d9 3808 	ldr.w	r3, [r9, #2056]	; 0x808
 8000ac0:	07d8      	lsls	r0, r3, #31
 8000ac2:	d502      	bpl.n	8000aca <HAL_PCD_IRQHandler+0xbe>
 8000ac4:	4620      	mov	r0, r4
 8000ac6:	f002 f827 	bl	8002b18 <HAL_PCD_SuspendCallback>
 8000aca:	6822      	ldr	r2, [r4, #0]
 8000acc:	6953      	ldr	r3, [r2, #20]
 8000ace:	f403 6300 	and.w	r3, r3, #2048	; 0x800
 8000ad2:	6153      	str	r3, [r2, #20]
 8000ad4:	6820      	ldr	r0, [r4, #0]
 8000ad6:	f001 f948 	bl	8001d6a <USB_ReadInterrupts>
 8000ada:	04c1      	lsls	r1, r0, #19
 8000adc:	d537      	bpl.n	8000b4e <HAL_PCD_IRQHandler+0x142>
 8000ade:	f509 6600 	add.w	r6, r9, #2048	; 0x800
 8000ae2:	6873      	ldr	r3, [r6, #4]
 8000ae4:	6820      	ldr	r0, [r4, #0]
 8000ae6:	f023 0301 	bic.w	r3, r3, #1
 8000aea:	6073      	str	r3, [r6, #4]
 8000aec:	2110      	movs	r1, #16
 8000aee:	f000 fea9 	bl	8001844 <USB_FlushTxFifo>
 8000af2:	6861      	ldr	r1, [r4, #4]
 8000af4:	f509 6310 	add.w	r3, r9, #2304	; 0x900
 8000af8:	22ff      	movs	r2, #255	; 0xff
 8000afa:	9802      	ldr	r0, [sp, #8]
 8000afc:	4288      	cmp	r0, r1
 8000afe:	f040 8192 	bne.w	8000e26 <HAL_PCD_IRQHandler+0x41a>
 8000b02:	f04f 33ff 	mov.w	r3, #4294967295
 8000b06:	61b3      	str	r3, [r6, #24]
 8000b08:	69f3      	ldr	r3, [r6, #28]
 8000b0a:	f043 1301 	orr.w	r3, r3, #65537	; 0x10001
 8000b0e:	61f3      	str	r3, [r6, #28]
 8000b10:	6b23      	ldr	r3, [r4, #48]	; 0x30
 8000b12:	2b00      	cmp	r3, #0
 8000b14:	f000 818f 	beq.w	8000e36 <HAL_PCD_IRQHandler+0x42a>
 8000b18:	f8d6 3084 	ldr.w	r3, [r6, #132]	; 0x84
 8000b1c:	f043 030b 	orr.w	r3, r3, #11
 8000b20:	f8c6 3084 	str.w	r3, [r6, #132]	; 0x84
 8000b24:	6c73      	ldr	r3, [r6, #68]	; 0x44
 8000b26:	f043 030b 	orr.w	r3, r3, #11
 8000b2a:	6473      	str	r3, [r6, #68]	; 0x44
 8000b2c:	f8d9 3800 	ldr.w	r3, [r9, #2048]	; 0x800
 8000b30:	7c21      	ldrb	r1, [r4, #16]
 8000b32:	6820      	ldr	r0, [r4, #0]
 8000b34:	f423 63fe 	bic.w	r3, r3, #2032	; 0x7f0
 8000b38:	f8c9 3800 	str.w	r3, [r9, #2048]	; 0x800
 8000b3c:	f504 726f 	add.w	r2, r4, #956	; 0x3bc
 8000b40:	f001 f960 	bl	8001e04 <USB_EP0_OutStart>
 8000b44:	6822      	ldr	r2, [r4, #0]
 8000b46:	6953      	ldr	r3, [r2, #20]
 8000b48:	f403 5380 	and.w	r3, r3, #4096	; 0x1000
 8000b4c:	6153      	str	r3, [r2, #20]
 8000b4e:	6820      	ldr	r0, [r4, #0]
 8000b50:	f001 f90b 	bl	8001d6a <USB_ReadInterrupts>
 8000b54:	0482      	lsls	r2, r0, #18
 8000b56:	d51d      	bpl.n	8000b94 <HAL_PCD_IRQHandler+0x188>
 8000b58:	6820      	ldr	r0, [r4, #0]
 8000b5a:	f001 f938 	bl	8001dce <USB_ActivateSetup>
 8000b5e:	6820      	ldr	r0, [r4, #0]
 8000b60:	68c3      	ldr	r3, [r0, #12]
 8000b62:	f423 5370 	bic.w	r3, r3, #15360	; 0x3c00
 8000b66:	60c3      	str	r3, [r0, #12]
 8000b68:	f000 fe95 	bl	8001896 <USB_GetDevSpeed>
 8000b6c:	2800      	cmp	r0, #0
 8000b6e:	f040 816b 	bne.w	8000e48 <HAL_PCD_IRQHandler+0x43c>
 8000b72:	6822      	ldr	r2, [r4, #0]
 8000b74:	60e0      	str	r0, [r4, #12]
 8000b76:	f44f 7300 	mov.w	r3, #512	; 0x200
 8000b7a:	6163      	str	r3, [r4, #20]
 8000b7c:	68d3      	ldr	r3, [r2, #12]
 8000b7e:	f443 5310 	orr.w	r3, r3, #9216	; 0x2400
 8000b82:	60d3      	str	r3, [r2, #12]
 8000b84:	4620      	mov	r0, r4
 8000b86:	f001 ffb6 	bl	8002af6 <HAL_PCD_ResetCallback>
 8000b8a:	6822      	ldr	r2, [r4, #0]
 8000b8c:	6953      	ldr	r3, [r2, #20]
 8000b8e:	f403 5300 	and.w	r3, r3, #8192	; 0x2000
 8000b92:	6153      	str	r3, [r2, #20]
 8000b94:	6820      	ldr	r0, [r4, #0]
 8000b96:	f001 f8e8 	bl	8001d6a <USB_ReadInterrupts>
 8000b9a:	06c3      	lsls	r3, r0, #27
 8000b9c:	d52b      	bpl.n	8000bf6 <HAL_PCD_IRQHandler+0x1ea>
 8000b9e:	6822      	ldr	r2, [r4, #0]
 8000ba0:	6993      	ldr	r3, [r2, #24]
 8000ba2:	f023 0310 	bic.w	r3, r3, #16
 8000ba6:	6193      	str	r3, [r2, #24]
 8000ba8:	f8d9 6020 	ldr.w	r6, [r9, #32]
 8000bac:	f3c6 4343 	ubfx	r3, r6, #17, #4
 8000bb0:	2b02      	cmp	r3, #2
 8000bb2:	f006 080f 	and.w	r8, r6, #15
 8000bb6:	f040 81a8 	bne.w	8000f0a <HAL_PCD_IRQHandler+0x4fe>
 8000bba:	f647 73f0 	movw	r3, #32752	; 0x7ff0
 8000bbe:	421e      	tst	r6, r3
 8000bc0:	d014      	beq.n	8000bec <HAL_PCD_IRQHandler+0x1e0>
 8000bc2:	271c      	movs	r7, #28
 8000bc4:	fb07 4708 	mla	r7, r7, r8, r4
 8000bc8:	f3c6 160a 	ubfx	r6, r6, #4, #11
 8000bcc:	4632      	mov	r2, r6
 8000bce:	f8d7 1204 	ldr.w	r1, [r7, #516]	; 0x204
 8000bd2:	4648      	mov	r0, r9
 8000bd4:	f001 f85b 	bl	8001c8e <USB_ReadPacket>
 8000bd8:	f8d7 3204 	ldr.w	r3, [r7, #516]	; 0x204
 8000bdc:	4433      	add	r3, r6
 8000bde:	f8c7 3204 	str.w	r3, [r7, #516]	; 0x204
 8000be2:	f8d7 3210 	ldr.w	r3, [r7, #528]	; 0x210
 8000be6:	441e      	add	r6, r3
 8000be8:	f8c7 6210 	str.w	r6, [r7, #528]	; 0x210
 8000bec:	6822      	ldr	r2, [r4, #0]
 8000bee:	6993      	ldr	r3, [r2, #24]
 8000bf0:	f043 0310 	orr.w	r3, r3, #16
 8000bf4:	6193      	str	r3, [r2, #24]
 8000bf6:	6820      	ldr	r0, [r4, #0]
 8000bf8:	f001 f8b7 	bl	8001d6a <USB_ReadInterrupts>
 8000bfc:	0707      	lsls	r7, r0, #28
 8000bfe:	d507      	bpl.n	8000c10 <HAL_PCD_IRQHandler+0x204>
 8000c00:	4620      	mov	r0, r4
 8000c02:	f001 ff74 	bl	8002aee <HAL_PCD_SOFCallback>
 8000c06:	6822      	ldr	r2, [r4, #0]
 8000c08:	6953      	ldr	r3, [r2, #20]
 8000c0a:	f003 0308 	and.w	r3, r3, #8
 8000c0e:	6153      	str	r3, [r2, #20]
 8000c10:	6820      	ldr	r0, [r4, #0]
 8000c12:	f001 f8aa 	bl	8001d6a <USB_ReadInterrupts>
 8000c16:	02c6      	lsls	r6, r0, #11
 8000c18:	d508      	bpl.n	8000c2c <HAL_PCD_IRQHandler+0x220>
 8000c1a:	b2e9      	uxtb	r1, r5
 8000c1c:	4620      	mov	r0, r4
 8000c1e:	f001 ff9b 	bl	8002b58 <HAL_PCD_ISOINIncompleteCallback>
 8000c22:	6822      	ldr	r2, [r4, #0]
 8000c24:	6953      	ldr	r3, [r2, #20]
 8000c26:	f403 1380 	and.w	r3, r3, #1048576	; 0x100000
 8000c2a:	6153      	str	r3, [r2, #20]
 8000c2c:	6820      	ldr	r0, [r4, #0]
 8000c2e:	f001 f89c 	bl	8001d6a <USB_ReadInterrupts>
 8000c32:	0280      	lsls	r0, r0, #10
 8000c34:	d508      	bpl.n	8000c48 <HAL_PCD_IRQHandler+0x23c>
 8000c36:	b2e9      	uxtb	r1, r5
 8000c38:	4620      	mov	r0, r4
 8000c3a:	f001 ff89 	bl	8002b50 <HAL_PCD_ISOOUTIncompleteCallback>
 8000c3e:	6822      	ldr	r2, [r4, #0]
 8000c40:	6953      	ldr	r3, [r2, #20]
 8000c42:	f403 1300 	and.w	r3, r3, #2097152	; 0x200000
 8000c46:	6153      	str	r3, [r2, #20]
 8000c48:	6820      	ldr	r0, [r4, #0]
 8000c4a:	f001 f88e 	bl	8001d6a <USB_ReadInterrupts>
 8000c4e:	0041      	lsls	r1, r0, #1
 8000c50:	d507      	bpl.n	8000c62 <HAL_PCD_IRQHandler+0x256>
 8000c52:	4620      	mov	r0, r4
 8000c54:	f001 ff84 	bl	8002b60 <HAL_PCD_ConnectCallback>
 8000c58:	6822      	ldr	r2, [r4, #0]
 8000c5a:	6953      	ldr	r3, [r2, #20]
 8000c5c:	f003 4380 	and.w	r3, r3, #1073741824	; 0x40000000
 8000c60:	6153      	str	r3, [r2, #20]
 8000c62:	6820      	ldr	r0, [r4, #0]
 8000c64:	f001 f881 	bl	8001d6a <USB_ReadInterrupts>
 8000c68:	0742      	lsls	r2, r0, #29
 8000c6a:	d50a      	bpl.n	8000c82 <HAL_PCD_IRQHandler+0x276>
 8000c6c:	6823      	ldr	r3, [r4, #0]
 8000c6e:	685d      	ldr	r5, [r3, #4]
 8000c70:	076b      	lsls	r3, r5, #29
 8000c72:	d502      	bpl.n	8000c7a <HAL_PCD_IRQHandler+0x26e>
 8000c74:	4620      	mov	r0, r4
 8000c76:	f001 ff77 	bl	8002b68 <HAL_PCD_DisconnectCallback>
 8000c7a:	6823      	ldr	r3, [r4, #0]
 8000c7c:	685a      	ldr	r2, [r3, #4]
 8000c7e:	4315      	orrs	r5, r2
 8000c80:	605d      	str	r5, [r3, #4]
 8000c82:	b007      	add	sp, #28
 8000c84:	e8bd 8ff0 	ldmia.w	sp!, {r4, r5, r6, r7, r8, r9, sl, fp, pc}
 8000c88:	07f8      	lsls	r0, r7, #31
 8000c8a:	d538      	bpl.n	8000cfe <HAL_PCD_IRQHandler+0x2f2>
 8000c8c:	fa5f fb85 	uxtb.w	fp, r5
 8000c90:	4659      	mov	r1, fp
 8000c92:	6820      	ldr	r0, [r4, #0]
 8000c94:	f001 f87d 	bl	8001d92 <USB_ReadDevOutEPInterrupt>
 8000c98:	f010 0f01 	tst.w	r0, #1
 8000c9c:	4680      	mov	r8, r0
 8000c9e:	d021      	beq.n	8000ce4 <HAL_PCD_IRQHandler+0x2d8>
 8000ca0:	6921      	ldr	r1, [r4, #16]
 8000ca2:	2301      	movs	r3, #1
 8000ca4:	4299      	cmp	r1, r3
 8000ca6:	60b3      	str	r3, [r6, #8]
 8000ca8:	d10c      	bne.n	8000cc4 <HAL_PCD_IRQHandler+0x2b8>
 8000caa:	6931      	ldr	r1, [r6, #16]
 8000cac:	f8da 0200 	ldr.w	r0, [sl, #512]	; 0x200
 8000cb0:	f3c1 0112 	ubfx	r1, r1, #0, #19
 8000cb4:	1a41      	subs	r1, r0, r1
 8000cb6:	f8ca 1210 	str.w	r1, [sl, #528]	; 0x210
 8000cba:	f8da 1204 	ldr.w	r1, [sl, #516]	; 0x204
 8000cbe:	4408      	add	r0, r1
 8000cc0:	f8ca 0204 	str.w	r0, [sl, #516]	; 0x204
 8000cc4:	4659      	mov	r1, fp
 8000cc6:	4620      	mov	r0, r4
 8000cc8:	f001 ff00 	bl	8002acc <HAL_PCD_DataOutStageCallback>
 8000ccc:	6921      	ldr	r1, [r4, #16]
 8000cce:	2901      	cmp	r1, #1
 8000cd0:	d108      	bne.n	8000ce4 <HAL_PCD_IRQHandler+0x2d8>
 8000cd2:	b93d      	cbnz	r5, 8000ce4 <HAL_PCD_IRQHandler+0x2d8>
 8000cd4:	f8d4 220c 	ldr.w	r2, [r4, #524]	; 0x20c
 8000cd8:	b922      	cbnz	r2, 8000ce4 <HAL_PCD_IRQHandler+0x2d8>
 8000cda:	f504 726f 	add.w	r2, r4, #956	; 0x3bc
 8000cde:	6820      	ldr	r0, [r4, #0]
 8000ce0:	f001 f890 	bl	8001e04 <USB_EP0_OutStart>
 8000ce4:	f018 0f08 	tst.w	r8, #8
 8000ce8:	d004      	beq.n	8000cf4 <HAL_PCD_IRQHandler+0x2e8>
 8000cea:	4620      	mov	r0, r4
 8000cec:	f001 fee8 	bl	8002ac0 <HAL_PCD_SetupStageCallback>
 8000cf0:	2308      	movs	r3, #8
 8000cf2:	60b3      	str	r3, [r6, #8]
 8000cf4:	f018 0f10 	tst.w	r8, #16
 8000cf8:	bf1c      	itt	ne
 8000cfa:	2310      	movne	r3, #16
 8000cfc:	60b3      	strne	r3, [r6, #8]
 8000cfe:	3501      	adds	r5, #1
 8000d00:	087f      	lsrs	r7, r7, #1
 8000d02:	3620      	adds	r6, #32
 8000d04:	f10a 0a1c 	add.w	sl, sl, #28
 8000d08:	e6ac      	b.n	8000a64 <HAL_PCD_IRQHandler+0x58>
 8000d0a:	9b03      	ldr	r3, [sp, #12]
 8000d0c:	07da      	lsls	r2, r3, #31
 8000d0e:	d558      	bpl.n	8000dc2 <HAL_PCD_IRQHandler+0x3b6>
 8000d10:	fa5f fb85 	uxtb.w	fp, r5
 8000d14:	4659      	mov	r1, fp
 8000d16:	6820      	ldr	r0, [r4, #0]
 8000d18:	f001 f845 	bl	8001da6 <USB_ReadDevInEPInterrupt>
 8000d1c:	07c3      	lsls	r3, r0, #31
 8000d1e:	4607      	mov	r7, r0
 8000d20:	d520      	bpl.n	8000d64 <HAL_PCD_IRQHandler+0x358>
 8000d22:	f8d9 3834 	ldr.w	r3, [r9, #2100]	; 0x834
 8000d26:	2101      	movs	r1, #1
 8000d28:	40a9      	lsls	r1, r5
 8000d2a:	ea23 0301 	bic.w	r3, r3, r1
 8000d2e:	f8c9 3834 	str.w	r3, [r9, #2100]	; 0x834
 8000d32:	2301      	movs	r3, #1
 8000d34:	f8c8 3008 	str.w	r3, [r8, #8]
 8000d38:	6923      	ldr	r3, [r4, #16]
 8000d3a:	2b01      	cmp	r3, #1
 8000d3c:	bf01      	itttt	eq
 8000d3e:	6c73      	ldreq	r3, [r6, #68]	; 0x44
 8000d40:	6c32      	ldreq	r2, [r6, #64]	; 0x40
 8000d42:	189b      	addeq	r3, r3, r2
 8000d44:	6473      	streq	r3, [r6, #68]	; 0x44
 8000d46:	4659      	mov	r1, fp
 8000d48:	4620      	mov	r0, r4
 8000d4a:	f001 fec8 	bl	8002ade <HAL_PCD_DataInStageCallback>
 8000d4e:	6921      	ldr	r1, [r4, #16]
 8000d50:	2901      	cmp	r1, #1
 8000d52:	d107      	bne.n	8000d64 <HAL_PCD_IRQHandler+0x358>
 8000d54:	b935      	cbnz	r5, 8000d64 <HAL_PCD_IRQHandler+0x358>
 8000d56:	6ce3      	ldr	r3, [r4, #76]	; 0x4c
 8000d58:	b923      	cbnz	r3, 8000d64 <HAL_PCD_IRQHandler+0x358>
 8000d5a:	f504 726f 	add.w	r2, r4, #956	; 0x3bc
 8000d5e:	6820      	ldr	r0, [r4, #0]
 8000d60:	f001 f850 	bl	8001e04 <USB_EP0_OutStart>
 8000d64:	0738      	lsls	r0, r7, #28
 8000d66:	bf44      	itt	mi
 8000d68:	2308      	movmi	r3, #8
 8000d6a:	f8c8 3008 	strmi.w	r3, [r8, #8]
 8000d6e:	06f9      	lsls	r1, r7, #27
 8000d70:	bf44      	itt	mi
 8000d72:	2310      	movmi	r3, #16
 8000d74:	f8c8 3008 	strmi.w	r3, [r8, #8]
 8000d78:	067a      	lsls	r2, r7, #25
 8000d7a:	bf44      	itt	mi
 8000d7c:	2340      	movmi	r3, #64	; 0x40
 8000d7e:	f8c8 3008 	strmi.w	r3, [r8, #8]
 8000d82:	07bb      	lsls	r3, r7, #30
 8000d84:	bf44      	itt	mi
 8000d86:	2302      	movmi	r3, #2
 8000d88:	f8c8 3008 	strmi.w	r3, [r8, #8]
 8000d8c:	063f      	lsls	r7, r7, #24
 8000d8e:	d518      	bpl.n	8000dc2 <HAL_PCD_IRQHandler+0x3b6>
 8000d90:	6823      	ldr	r3, [r4, #0]
 8000d92:	9304      	str	r3, [sp, #16]
 8000d94:	6cf7      	ldr	r7, [r6, #76]	; 0x4c
 8000d96:	6d33      	ldr	r3, [r6, #80]	; 0x50
 8000d98:	1aff      	subs	r7, r7, r3
 8000d9a:	6c33      	ldr	r3, [r6, #64]	; 0x40
 8000d9c:	429f      	cmp	r7, r3
 8000d9e:	bf28      	it	cs
 8000da0:	461f      	movcs	r7, r3
 8000da2:	9b04      	ldr	r3, [sp, #16]
 8000da4:	f503 6310 	add.w	r3, r3, #2304	; 0x900
 8000da8:	f107 0a03 	add.w	sl, r7, #3
 8000dac:	eb03 1345 	add.w	r3, r3, r5, lsl #5
 8000db0:	ea4f 0a9a 	mov.w	sl, sl, lsr #2
 8000db4:	9305      	str	r3, [sp, #20]
 8000db6:	9b05      	ldr	r3, [sp, #20]
 8000db8:	699b      	ldr	r3, [r3, #24]
 8000dba:	b29b      	uxth	r3, r3
 8000dbc:	4553      	cmp	r3, sl
 8000dbe:	d808      	bhi.n	8000dd2 <HAL_PCD_IRQHandler+0x3c6>
 8000dc0:	b32f      	cbz	r7, 8000e0e <HAL_PCD_IRQHandler+0x402>
 8000dc2:	9b03      	ldr	r3, [sp, #12]
 8000dc4:	085b      	lsrs	r3, r3, #1
 8000dc6:	3501      	adds	r5, #1
 8000dc8:	9303      	str	r3, [sp, #12]
 8000dca:	361c      	adds	r6, #28
 8000dcc:	f108 0820 	add.w	r8, r8, #32
 8000dd0:	e658      	b.n	8000a84 <HAL_PCD_IRQHandler+0x78>
 8000dd2:	6d32      	ldr	r2, [r6, #80]	; 0x50
 8000dd4:	6cf3      	ldr	r3, [r6, #76]	; 0x4c
 8000dd6:	4293      	cmp	r3, r2
 8000dd8:	d9f2      	bls.n	8000dc0 <HAL_PCD_IRQHandler+0x3b4>
 8000dda:	2b00      	cmp	r3, #0
 8000ddc:	d0f0      	beq.n	8000dc0 <HAL_PCD_IRQHandler+0x3b4>
 8000dde:	6c37      	ldr	r7, [r6, #64]	; 0x40
 8000de0:	9804      	ldr	r0, [sp, #16]
 8000de2:	1a9b      	subs	r3, r3, r2
 8000de4:	429f      	cmp	r7, r3
 8000de6:	bf28      	it	cs
 8000de8:	461f      	movcs	r7, r3
 8000dea:	7c23      	ldrb	r3, [r4, #16]
 8000dec:	9300      	str	r3, [sp, #0]
 8000dee:	465a      	mov	r2, fp
 8000df0:	b2bb      	uxth	r3, r7
 8000df2:	6c71      	ldr	r1, [r6, #68]	; 0x44
 8000df4:	f000 ff37 	bl	8001c66 <USB_WritePacket>
 8000df8:	6c73      	ldr	r3, [r6, #68]	; 0x44
 8000dfa:	443b      	add	r3, r7
 8000dfc:	6473      	str	r3, [r6, #68]	; 0x44
 8000dfe:	6d33      	ldr	r3, [r6, #80]	; 0x50
 8000e00:	f107 0a03 	add.w	sl, r7, #3
 8000e04:	443b      	add	r3, r7
 8000e06:	ea4f 0a9a 	mov.w	sl, sl, lsr #2
 8000e0a:	6533      	str	r3, [r6, #80]	; 0x50
 8000e0c:	e7d3      	b.n	8000db6 <HAL_PCD_IRQHandler+0x3aa>
 8000e0e:	9b04      	ldr	r3, [sp, #16]
 8000e10:	2201      	movs	r2, #1
 8000e12:	f503 6b00 	add.w	fp, r3, #2048	; 0x800
 8000e16:	f8d3 3834 	ldr.w	r3, [r3, #2100]	; 0x834
 8000e1a:	40aa      	lsls	r2, r5
 8000e1c:	ea23 0302 	bic.w	r3, r3, r2
 8000e20:	f8cb 3034 	str.w	r3, [fp, #52]	; 0x34
 8000e24:	e7cd      	b.n	8000dc2 <HAL_PCD_IRQHandler+0x3b6>
 8000e26:	9802      	ldr	r0, [sp, #8]
 8000e28:	609a      	str	r2, [r3, #8]
 8000e2a:	3001      	adds	r0, #1
 8000e2c:	f8c3 2208 	str.w	r2, [r3, #520]	; 0x208
 8000e30:	9002      	str	r0, [sp, #8]
 8000e32:	3320      	adds	r3, #32
 8000e34:	e661      	b.n	8000afa <HAL_PCD_IRQHandler+0xee>
 8000e36:	6973      	ldr	r3, [r6, #20]
 8000e38:	f043 030b 	orr.w	r3, r3, #11
 8000e3c:	6173      	str	r3, [r6, #20]
 8000e3e:	6933      	ldr	r3, [r6, #16]
 8000e40:	f043 030b 	orr.w	r3, r3, #11
 8000e44:	6133      	str	r3, [r6, #16]
 8000e46:	e671      	b.n	8000b2c <HAL_PCD_IRQHandler+0x120>
 8000e48:	2303      	movs	r3, #3
 8000e4a:	60e3      	str	r3, [r4, #12]
 8000e4c:	2340      	movs	r3, #64	; 0x40
 8000e4e:	6163      	str	r3, [r4, #20]
 8000e50:	f000 fbf8 	bl	8001644 <HAL_RCC_GetHCLKFreq>
 8000e54:	4b34      	ldr	r3, [pc, #208]	; (8000f28 <HAL_PCD_IRQHandler+0x51c>)
 8000e56:	4a35      	ldr	r2, [pc, #212]	; (8000f2c <HAL_PCD_IRQHandler+0x520>)
 8000e58:	4403      	add	r3, r0
 8000e5a:	4293      	cmp	r3, r2
 8000e5c:	6823      	ldr	r3, [r4, #0]
 8000e5e:	d804      	bhi.n	8000e6a <HAL_PCD_IRQHandler+0x45e>
 8000e60:	68da      	ldr	r2, [r3, #12]
 8000e62:	f442 5270 	orr.w	r2, r2, #15360	; 0x3c00
 8000e66:	60da      	str	r2, [r3, #12]
 8000e68:	e68c      	b.n	8000b84 <HAL_PCD_IRQHandler+0x178>
 8000e6a:	4a31      	ldr	r2, [pc, #196]	; (8000f30 <HAL_PCD_IRQHandler+0x524>)
 8000e6c:	4931      	ldr	r1, [pc, #196]	; (8000f34 <HAL_PCD_IRQHandler+0x528>)
 8000e6e:	4402      	add	r2, r0
 8000e70:	428a      	cmp	r2, r1
 8000e72:	d803      	bhi.n	8000e7c <HAL_PCD_IRQHandler+0x470>
 8000e74:	68da      	ldr	r2, [r3, #12]
 8000e76:	f442 5260 	orr.w	r2, r2, #14336	; 0x3800
 8000e7a:	e7f4      	b.n	8000e66 <HAL_PCD_IRQHandler+0x45a>
 8000e7c:	f5a0 0274 	sub.w	r2, r0, #15990784	; 0xf40000
 8000e80:	492d      	ldr	r1, [pc, #180]	; (8000f38 <HAL_PCD_IRQHandler+0x52c>)
 8000e82:	f5a2 5210 	sub.w	r2, r2, #9216	; 0x2400
 8000e86:	428a      	cmp	r2, r1
 8000e88:	d803      	bhi.n	8000e92 <HAL_PCD_IRQHandler+0x486>
 8000e8a:	68da      	ldr	r2, [r3, #12]
 8000e8c:	f442 5250 	orr.w	r2, r2, #13312	; 0x3400
 8000e90:	e7e9      	b.n	8000e66 <HAL_PCD_IRQHandler+0x45a>
 8000e92:	f1a0 7283 	sub.w	r2, r0, #17170432	; 0x1060000
 8000e96:	4929      	ldr	r1, [pc, #164]	; (8000f3c <HAL_PCD_IRQHandler+0x530>)
 8000e98:	f5a2 42e7 	sub.w	r2, r2, #29568	; 0x7380
 8000e9c:	428a      	cmp	r2, r1
 8000e9e:	d803      	bhi.n	8000ea8 <HAL_PCD_IRQHandler+0x49c>
 8000ea0:	68da      	ldr	r2, [r3, #12]
 8000ea2:	f442 5240 	orr.w	r2, r2, #12288	; 0x3000
 8000ea6:	e7de      	b.n	8000e66 <HAL_PCD_IRQHandler+0x45a>
 8000ea8:	4a25      	ldr	r2, [pc, #148]	; (8000f40 <HAL_PCD_IRQHandler+0x534>)
 8000eaa:	4926      	ldr	r1, [pc, #152]	; (8000f44 <HAL_PCD_IRQHandler+0x538>)
 8000eac:	4402      	add	r2, r0
 8000eae:	428a      	cmp	r2, r1
 8000eb0:	d803      	bhi.n	8000eba <HAL_PCD_IRQHandler+0x4ae>
 8000eb2:	68da      	ldr	r2, [r3, #12]
 8000eb4:	f442 5230 	orr.w	r2, r2, #11264	; 0x2c00
 8000eb8:	e7d5      	b.n	8000e66 <HAL_PCD_IRQHandler+0x45a>
 8000eba:	4a23      	ldr	r2, [pc, #140]	; (8000f48 <HAL_PCD_IRQHandler+0x53c>)
 8000ebc:	4923      	ldr	r1, [pc, #140]	; (8000f4c <HAL_PCD_IRQHandler+0x540>)
 8000ebe:	4402      	add	r2, r0
 8000ec0:	428a      	cmp	r2, r1
 8000ec2:	d803      	bhi.n	8000ecc <HAL_PCD_IRQHandler+0x4c0>
 8000ec4:	68da      	ldr	r2, [r3, #12]
 8000ec6:	f442 5220 	orr.w	r2, r2, #10240	; 0x2800
 8000eca:	e7cc      	b.n	8000e66 <HAL_PCD_IRQHandler+0x45a>
 8000ecc:	4a20      	ldr	r2, [pc, #128]	; (8000f50 <HAL_PCD_IRQHandler+0x544>)
 8000ece:	4921      	ldr	r1, [pc, #132]	; (8000f54 <HAL_PCD_IRQHandler+0x548>)
 8000ed0:	4402      	add	r2, r0
 8000ed2:	428a      	cmp	r2, r1
 8000ed4:	d803      	bhi.n	8000ede <HAL_PCD_IRQHandler+0x4d2>
 8000ed6:	68da      	ldr	r2, [r3, #12]
 8000ed8:	f442 5210 	orr.w	r2, r2, #9216	; 0x2400
 8000edc:	e7c3      	b.n	8000e66 <HAL_PCD_IRQHandler+0x45a>
 8000ede:	f1a0 72b7 	sub.w	r2, r0, #23986176	; 0x16e0000
 8000ee2:	491d      	ldr	r1, [pc, #116]	; (8000f58 <HAL_PCD_IRQHandler+0x54c>)
 8000ee4:	f5a2 5258 	sub.w	r2, r2, #13824	; 0x3600
 8000ee8:	428a      	cmp	r2, r1
 8000eea:	d803      	bhi.n	8000ef4 <HAL_PCD_IRQHandler+0x4e8>
 8000eec:	68da      	ldr	r2, [r3, #12]
 8000eee:	f442 5200 	orr.w	r2, r2, #8192	; 0x2000
 8000ef2:	e7b8      	b.n	8000e66 <HAL_PCD_IRQHandler+0x45a>
 8000ef4:	4a19      	ldr	r2, [pc, #100]	; (8000f5c <HAL_PCD_IRQHandler+0x550>)
 8000ef6:	491a      	ldr	r1, [pc, #104]	; (8000f60 <HAL_PCD_IRQHandler+0x554>)
 8000ef8:	4402      	add	r2, r0
 8000efa:	428a      	cmp	r2, r1
 8000efc:	68da      	ldr	r2, [r3, #12]
 8000efe:	bf94      	ite	ls
 8000f00:	f442 52e0 	orrls.w	r2, r2, #7168	; 0x1c00
 8000f04:	f442 52c0 	orrhi.w	r2, r2, #6144	; 0x1800
 8000f08:	e7ad      	b.n	8000e66 <HAL_PCD_IRQHandler+0x45a>
 8000f0a:	2b06      	cmp	r3, #6
 8000f0c:	f47f ae6e 	bne.w	8000bec <HAL_PCD_IRQHandler+0x1e0>
 8000f10:	2208      	movs	r2, #8
 8000f12:	f504 716f 	add.w	r1, r4, #956	; 0x3bc
 8000f16:	4648      	mov	r0, r9
 8000f18:	271c      	movs	r7, #28
 8000f1a:	f000 feb8 	bl	8001c8e <USB_ReadPacket>
 8000f1e:	fb07 4708 	mla	r7, r7, r8, r4
 8000f22:	f3c6 160a 	ubfx	r6, r6, #4, #11
 8000f26:	e65c      	b.n	8000be2 <HAL_PCD_IRQHandler+0x1d6>
 8000f28:	ff275340 	.word	0xff275340
 8000f2c:	000c34ff 	.word	0x000c34ff
 8000f30:	ff1b1e40 	.word	0xff1b1e40
 8000f34:	000f423f 	.word	0x000f423f
 8000f38:	00124f7f 	.word	0x00124f7f
 8000f3c:	0013d61f 	.word	0x0013d61f
 8000f40:	fee5b660 	.word	0xfee5b660
 8000f44:	0016e35f 	.word	0x0016e35f
 8000f48:	feced300 	.word	0xfeced300
 8000f4c:	001b773f 	.word	0x001b773f
 8000f50:	feb35bc0 	.word	0xfeb35bc0
 8000f54:	002191bf 	.word	0x002191bf
 8000f58:	0038751f 	.word	0x0038751f
 8000f5c:	fe5954e0 	.word	0xfe5954e0
 8000f60:	00419cdf 	.word	0x00419cdf

08000f64 <HAL_PCD_SetAddress>:
 8000f64:	f890 33b8 	ldrb.w	r3, [r0, #952]	; 0x3b8
 8000f68:	2b01      	cmp	r3, #1
 8000f6a:	b510      	push	{r4, lr}
 8000f6c:	4604      	mov	r4, r0
 8000f6e:	d009      	beq.n	8000f84 <HAL_PCD_SetAddress+0x20>
 8000f70:	2301      	movs	r3, #1
 8000f72:	f880 33b8 	strb.w	r3, [r0, #952]	; 0x3b8
 8000f76:	6800      	ldr	r0, [r0, #0]
 8000f78:	f000 fecf 	bl	8001d1a <USB_SetDevAddress>
 8000f7c:	2000      	movs	r0, #0
 8000f7e:	f884 03b8 	strb.w	r0, [r4, #952]	; 0x3b8
 8000f82:	bd10      	pop	{r4, pc}
 8000f84:	2002      	movs	r0, #2
 8000f86:	bd10      	pop	{r4, pc}

08000f88 <HAL_PCD_EP_Open>:
 8000f88:	b570      	push	{r4, r5, r6, lr}
 8000f8a:	b24e      	sxtb	r6, r1
 8000f8c:	2e00      	cmp	r6, #0
 8000f8e:	4604      	mov	r4, r0
 8000f90:	f04f 051c 	mov.w	r5, #28
 8000f94:	f001 007f 	and.w	r0, r1, #127	; 0x7f
 8000f98:	bfb5      	itete	lt
 8000f9a:	fb05 4100 	mlalt	r1, r5, r0, r4
 8000f9e:	fb05 4101 	mlage	r1, r5, r1, r4
 8000fa2:	3138      	addlt	r1, #56	; 0x38
 8000fa4:	f501 71fc 	addge.w	r1, r1, #504	; 0x1f8
 8000fa8:	b2c0      	uxtb	r0, r0
 8000faa:	2e00      	cmp	r6, #0
 8000fac:	bfb8      	it	lt
 8000fae:	80c8      	strhlt	r0, [r1, #6]
 8000fb0:	2b02      	cmp	r3, #2
 8000fb2:	70cb      	strb	r3, [r1, #3]
 8000fb4:	ea4f 75d6 	mov.w	r5, r6, lsr #31
 8000fb8:	bf04      	itt	eq
 8000fba:	2300      	moveq	r3, #0
 8000fbc:	710b      	strbeq	r3, [r1, #4]
 8000fbe:	7008      	strb	r0, [r1, #0]
 8000fc0:	704d      	strb	r5, [r1, #1]
 8000fc2:	f894 33b8 	ldrb.w	r3, [r4, #952]	; 0x3b8
 8000fc6:	608a      	str	r2, [r1, #8]
 8000fc8:	2b01      	cmp	r3, #1
 8000fca:	d009      	beq.n	8000fe0 <HAL_PCD_EP_Open+0x58>
 8000fcc:	2301      	movs	r3, #1
 8000fce:	f884 33b8 	strb.w	r3, [r4, #952]	; 0x3b8
 8000fd2:	6820      	ldr	r0, [r4, #0]
 8000fd4:	f000 fc7a 	bl	80018cc <USB_ActivateEndpoint>
 8000fd8:	2000      	movs	r0, #0
 8000fda:	f884 03b8 	strb.w	r0, [r4, #952]	; 0x3b8
 8000fde:	bd70      	pop	{r4, r5, r6, pc}
 8000fe0:	2002      	movs	r0, #2
 8000fe2:	bd70      	pop	{r4, r5, r6, pc}

08000fe4 <HAL_PCD_EP_Close>:
 8000fe4:	b24b      	sxtb	r3, r1
 8000fe6:	2b00      	cmp	r3, #0
 8000fe8:	b510      	push	{r4, lr}
 8000fea:	f04f 021c 	mov.w	r2, #28
 8000fee:	4604      	mov	r4, r0
 8000ff0:	f001 007f 	and.w	r0, r1, #127	; 0x7f
 8000ff4:	bfb5      	itete	lt
 8000ff6:	fb02 4100 	mlalt	r1, r2, r0, r4
 8000ffa:	fb02 4101 	mlage	r1, r2, r1, r4
 8000ffe:	3138      	addlt	r1, #56	; 0x38
 8001000:	f501 71fc 	addge.w	r1, r1, #504	; 0x1f8
 8001004:	0fdb      	lsrs	r3, r3, #31
 8001006:	7008      	strb	r0, [r1, #0]
 8001008:	704b      	strb	r3, [r1, #1]
 800100a:	f894 33b8 	ldrb.w	r3, [r4, #952]	; 0x3b8
 800100e:	2b01      	cmp	r3, #1
 8001010:	d009      	beq.n	8001026 <HAL_PCD_EP_Close+0x42>
 8001012:	2301      	movs	r3, #1
 8001014:	f884 33b8 	strb.w	r3, [r4, #952]	; 0x3b8
 8001018:	6820      	ldr	r0, [r4, #0]
 800101a:	f000 fc96 	bl	800194a <USB_DeactivateEndpoint>
 800101e:	2000      	movs	r0, #0
 8001020:	f884 03b8 	strb.w	r0, [r4, #952]	; 0x3b8
 8001024:	bd10      	pop	{r4, pc}
 8001026:	2002      	movs	r0, #2
 8001028:	bd10      	pop	{r4, pc}

0800102a <HAL_PCD_EP_Receive>:
 800102a:	b538      	push	{r3, r4, r5, lr}
 800102c:	f001 057f 	and.w	r5, r1, #127	; 0x7f
 8001030:	241c      	movs	r4, #28
 8001032:	fb04 0105 	mla	r1, r4, r5, r0
 8001036:	fb04 0405 	mla	r4, r4, r5, r0
 800103a:	f501 71fc 	add.w	r1, r1, #504	; 0x1f8
 800103e:	f8c4 320c 	str.w	r3, [r4, #524]	; 0x20c
 8001042:	2300      	movs	r3, #0
 8001044:	f8c4 2204 	str.w	r2, [r4, #516]	; 0x204
 8001048:	f8c4 3210 	str.w	r3, [r4, #528]	; 0x210
 800104c:	f884 31f9 	strb.w	r3, [r4, #505]	; 0x1f9
 8001050:	f884 51f8 	strb.w	r5, [r4, #504]	; 0x1f8
 8001054:	6903      	ldr	r3, [r0, #16]
 8001056:	6800      	ldr	r0, [r0, #0]
 8001058:	2b01      	cmp	r3, #1
 800105a:	bf08      	it	eq
 800105c:	f8c4 2208 	streq.w	r2, [r4, #520]	; 0x208
 8001060:	b2da      	uxtb	r2, r3
 8001062:	b91d      	cbnz	r5, 800106c <HAL_PCD_EP_Receive+0x42>
 8001064:	f000 fd92 	bl	8001b8c <USB_EP0StartXfer>
 8001068:	2000      	movs	r0, #0
 800106a:	bd38      	pop	{r3, r4, r5, pc}
 800106c:	f000 fcc8 	bl	8001a00 <USB_EPStartXfer>
 8001070:	e7fa      	b.n	8001068 <HAL_PCD_EP_Receive+0x3e>

08001072 <HAL_PCD_EP_GetRxCount>:
 8001072:	231c      	movs	r3, #28
 8001074:	f001 010f 	and.w	r1, r1, #15
 8001078:	fb03 0101 	mla	r1, r3, r1, r0
 800107c:	f8b1 0210 	ldrh.w	r0, [r1, #528]	; 0x210
 8001080:	4770      	bx	lr

08001082 <HAL_PCD_EP_Transmit>:
 8001082:	b538      	push	{r3, r4, r5, lr}
 8001084:	f001 057f 	and.w	r5, r1, #127	; 0x7f
 8001088:	241c      	movs	r4, #28
 800108a:	fb04 0105 	mla	r1, r4, r5, r0
 800108e:	fb04 0405 	mla	r4, r4, r5, r0
 8001092:	3138      	adds	r1, #56	; 0x38
 8001094:	64e3      	str	r3, [r4, #76]	; 0x4c
 8001096:	2300      	movs	r3, #0
 8001098:	6523      	str	r3, [r4, #80]	; 0x50
 800109a:	2301      	movs	r3, #1
 800109c:	6462      	str	r2, [r4, #68]	; 0x44
 800109e:	f884 3039 	strb.w	r3, [r4, #57]	; 0x39
 80010a2:	f884 5038 	strb.w	r5, [r4, #56]	; 0x38
 80010a6:	6903      	ldr	r3, [r0, #16]
 80010a8:	6800      	ldr	r0, [r0, #0]
 80010aa:	2b01      	cmp	r3, #1
 80010ac:	bf08      	it	eq
 80010ae:	64a2      	streq	r2, [r4, #72]	; 0x48
 80010b0:	b2da      	uxtb	r2, r3
 80010b2:	b91d      	cbnz	r5, 80010bc <HAL_PCD_EP_Transmit+0x3a>
 80010b4:	f000 fd6a 	bl	8001b8c <USB_EP0StartXfer>
 80010b8:	2000      	movs	r0, #0
 80010ba:	bd38      	pop	{r3, r4, r5, pc}
 80010bc:	f000 fca0 	bl	8001a00 <USB_EPStartXfer>
 80010c0:	e7fa      	b.n	80010b8 <HAL_PCD_EP_Transmit+0x36>

080010c2 <HAL_PCD_EP_SetStall>:
 80010c2:	b538      	push	{r3, r4, r5, lr}
 80010c4:	b24b      	sxtb	r3, r1
 80010c6:	2b00      	cmp	r3, #0
 80010c8:	f001 057f 	and.w	r5, r1, #127	; 0x7f
 80010cc:	f04f 021c 	mov.w	r2, #28
 80010d0:	bfb5      	itete	lt
 80010d2:	fb02 0105 	mlalt	r1, r2, r5, r0
 80010d6:	fb02 0101 	mlage	r1, r2, r1, r0
 80010da:	3138      	addlt	r1, #56	; 0x38
 80010dc:	f501 71fc 	addge.w	r1, r1, #504	; 0x1f8
 80010e0:	2201      	movs	r2, #1
 80010e2:	0fdb      	lsrs	r3, r3, #31
 80010e4:	b2ed      	uxtb	r5, r5
 80010e6:	708a      	strb	r2, [r1, #2]
 80010e8:	700d      	strb	r5, [r1, #0]
 80010ea:	704b      	strb	r3, [r1, #1]
 80010ec:	f890 33b8 	ldrb.w	r3, [r0, #952]	; 0x3b8
 80010f0:	4293      	cmp	r3, r2
 80010f2:	4604      	mov	r4, r0
 80010f4:	d00f      	beq.n	8001116 <HAL_PCD_EP_SetStall+0x54>
 80010f6:	f880 23b8 	strb.w	r2, [r0, #952]	; 0x3b8
 80010fa:	6800      	ldr	r0, [r0, #0]
 80010fc:	f000 fdd5 	bl	8001caa <USB_EPSetStall>
 8001100:	b92d      	cbnz	r5, 800110e <HAL_PCD_EP_SetStall+0x4c>
 8001102:	f504 726f 	add.w	r2, r4, #956	; 0x3bc
 8001106:	7c21      	ldrb	r1, [r4, #16]
 8001108:	6820      	ldr	r0, [r4, #0]
 800110a:	f000 fe7b 	bl	8001e04 <USB_EP0_OutStart>
 800110e:	2000      	movs	r0, #0
 8001110:	f884 03b8 	strb.w	r0, [r4, #952]	; 0x3b8
 8001114:	bd38      	pop	{r3, r4, r5, pc}
 8001116:	2002      	movs	r0, #2
 8001118:	bd38      	pop	{r3, r4, r5, pc}

0800111a <HAL_PCD_EP_ClrStall>:
 800111a:	b538      	push	{r3, r4, r5, lr}
 800111c:	b24b      	sxtb	r3, r1
 800111e:	2b00      	cmp	r3, #0
 8001120:	4605      	mov	r5, r0
 8001122:	f04f 021c 	mov.w	r2, #28
 8001126:	f001 007f 	and.w	r0, r1, #127	; 0x7f
 800112a:	bfb5      	itete	lt
 800112c:	fb02 5100 	mlalt	r1, r2, r0, r5
 8001130:	fb02 5101 	mlage	r1, r2, r1, r5
 8001134:	3138      	addlt	r1, #56	; 0x38
 8001136:	f501 71fc 	addge.w	r1, r1, #504	; 0x1f8
 800113a:	0fdb      	lsrs	r3, r3, #31
 800113c:	2400      	movs	r4, #0
 800113e:	708c      	strb	r4, [r1, #2]
 8001140:	7008      	strb	r0, [r1, #0]
 8001142:	704b      	strb	r3, [r1, #1]
 8001144:	f895 33b8 	ldrb.w	r3, [r5, #952]	; 0x3b8
 8001148:	2b01      	cmp	r3, #1
 800114a:	d009      	beq.n	8001160 <HAL_PCD_EP_ClrStall+0x46>
 800114c:	2301      	movs	r3, #1
 800114e:	f885 33b8 	strb.w	r3, [r5, #952]	; 0x3b8
 8001152:	6828      	ldr	r0, [r5, #0]
 8001154:	f000 fdc8 	bl	8001ce8 <USB_EPClearStall>
 8001158:	f885 43b8 	strb.w	r4, [r5, #952]	; 0x3b8
 800115c:	4620      	mov	r0, r4
 800115e:	bd38      	pop	{r3, r4, r5, pc}
 8001160:	2002      	movs	r0, #2
 8001162:	bd38      	pop	{r3, r4, r5, pc}

08001164 <HAL_PCDEx_SetTxFiFo>:
 8001164:	6800      	ldr	r0, [r0, #0]
 8001166:	b570      	push	{r4, r5, r6, lr}
 8001168:	6a43      	ldr	r3, [r0, #36]	; 0x24
 800116a:	b921      	cbnz	r1, 8001176 <HAL_PCDEx_SetTxFiFo+0x12>
 800116c:	ea43 4302 	orr.w	r3, r3, r2, lsl #16
 8001170:	6283      	str	r3, [r0, #40]	; 0x28
 8001172:	2000      	movs	r0, #0
 8001174:	bd70      	pop	{r4, r5, r6, pc}
 8001176:	6a84      	ldr	r4, [r0, #40]	; 0x28
 8001178:	2500      	movs	r5, #0
 800117a:	eb03 4314 	add.w	r3, r3, r4, lsr #16
 800117e:	1e4e      	subs	r6, r1, #1
 8001180:	b2ec      	uxtb	r4, r5
 8001182:	42b4      	cmp	r4, r6
 8001184:	f105 0501 	add.w	r5, r5, #1
 8001188:	db06      	blt.n	8001198 <HAL_PCDEx_SetTxFiFo+0x34>
 800118a:	313f      	adds	r1, #63	; 0x3f
 800118c:	eb00 0081 	add.w	r0, r0, r1, lsl #2
 8001190:	ea43 4302 	orr.w	r3, r3, r2, lsl #16
 8001194:	6043      	str	r3, [r0, #4]
 8001196:	e7ec      	b.n	8001172 <HAL_PCDEx_SetTxFiFo+0xe>
 8001198:	3440      	adds	r4, #64	; 0x40
 800119a:	eb00 0484 	add.w	r4, r0, r4, lsl #2
 800119e:	6864      	ldr	r4, [r4, #4]
 80011a0:	eb03 4314 	add.w	r3, r3, r4, lsr #16
 80011a4:	e7ec      	b.n	8001180 <HAL_PCDEx_SetTxFiFo+0x1c>

080011a6 <HAL_PCDEx_SetRxFiFo>:
 80011a6:	6803      	ldr	r3, [r0, #0]
 80011a8:	2000      	movs	r0, #0
 80011aa:	6259      	str	r1, [r3, #36]	; 0x24
 80011ac:	4770      	bx	lr
	...

080011b0 <HAL_RCC_OscConfig>:
 80011b0:	e92d 41f3 	stmdb	sp!, {r0, r1, r4, r5, r6, r7, r8, lr}
 80011b4:	4604      	mov	r4, r0
 80011b6:	b918      	cbnz	r0, 80011c0 <HAL_RCC_OscConfig+0x10>
 80011b8:	2001      	movs	r0, #1
 80011ba:	b002      	add	sp, #8
 80011bc:	e8bd 81f0 	ldmia.w	sp!, {r4, r5, r6, r7, r8, pc}
 80011c0:	6803      	ldr	r3, [r0, #0]
 80011c2:	07dd      	lsls	r5, r3, #31
 80011c4:	d410      	bmi.n	80011e8 <HAL_RCC_OscConfig+0x38>
 80011c6:	6823      	ldr	r3, [r4, #0]
 80011c8:	0798      	lsls	r0, r3, #30
 80011ca:	d458      	bmi.n	800127e <HAL_RCC_OscConfig+0xce>
 80011cc:	6823      	ldr	r3, [r4, #0]
 80011ce:	071a      	lsls	r2, r3, #28
 80011d0:	f100 809a 	bmi.w	8001308 <HAL_RCC_OscConfig+0x158>
 80011d4:	6823      	ldr	r3, [r4, #0]
 80011d6:	075b      	lsls	r3, r3, #29
 80011d8:	f100 80b8 	bmi.w	800134c <HAL_RCC_OscConfig+0x19c>
 80011dc:	69a2      	ldr	r2, [r4, #24]
 80011de:	2a00      	cmp	r2, #0
 80011e0:	f040 8119 	bne.w	8001416 <HAL_RCC_OscConfig+0x266>
 80011e4:	2000      	movs	r0, #0
 80011e6:	e7e8      	b.n	80011ba <HAL_RCC_OscConfig+0xa>
 80011e8:	4ba6      	ldr	r3, [pc, #664]	; (8001484 <HAL_RCC_OscConfig+0x2d4>)
 80011ea:	689a      	ldr	r2, [r3, #8]
 80011ec:	f002 020c 	and.w	r2, r2, #12
 80011f0:	2a04      	cmp	r2, #4
 80011f2:	d007      	beq.n	8001204 <HAL_RCC_OscConfig+0x54>
 80011f4:	689a      	ldr	r2, [r3, #8]
 80011f6:	f002 020c 	and.w	r2, r2, #12
 80011fa:	2a08      	cmp	r2, #8
 80011fc:	d10a      	bne.n	8001214 <HAL_RCC_OscConfig+0x64>
 80011fe:	685b      	ldr	r3, [r3, #4]
 8001200:	0259      	lsls	r1, r3, #9
 8001202:	d507      	bpl.n	8001214 <HAL_RCC_OscConfig+0x64>
 8001204:	4b9f      	ldr	r3, [pc, #636]	; (8001484 <HAL_RCC_OscConfig+0x2d4>)
 8001206:	681b      	ldr	r3, [r3, #0]
 8001208:	039a      	lsls	r2, r3, #14
 800120a:	d5dc      	bpl.n	80011c6 <HAL_RCC_OscConfig+0x16>
 800120c:	6863      	ldr	r3, [r4, #4]
 800120e:	2b00      	cmp	r3, #0
 8001210:	d1d9      	bne.n	80011c6 <HAL_RCC_OscConfig+0x16>
 8001212:	e7d1      	b.n	80011b8 <HAL_RCC_OscConfig+0x8>
 8001214:	6863      	ldr	r3, [r4, #4]
 8001216:	4d9b      	ldr	r5, [pc, #620]	; (8001484 <HAL_RCC_OscConfig+0x2d4>)
 8001218:	f5b3 3f80 	cmp.w	r3, #65536	; 0x10000
 800121c:	d111      	bne.n	8001242 <HAL_RCC_OscConfig+0x92>
 800121e:	682b      	ldr	r3, [r5, #0]
 8001220:	f443 3380 	orr.w	r3, r3, #65536	; 0x10000
 8001224:	602b      	str	r3, [r5, #0]
 8001226:	f7ff f9f5 	bl	8000614 <HAL_GetTick>
 800122a:	4d96      	ldr	r5, [pc, #600]	; (8001484 <HAL_RCC_OscConfig+0x2d4>)
 800122c:	4606      	mov	r6, r0
 800122e:	682b      	ldr	r3, [r5, #0]
 8001230:	039b      	lsls	r3, r3, #14
 8001232:	d4c8      	bmi.n	80011c6 <HAL_RCC_OscConfig+0x16>
 8001234:	f7ff f9ee 	bl	8000614 <HAL_GetTick>
 8001238:	1b80      	subs	r0, r0, r6
 800123a:	2864      	cmp	r0, #100	; 0x64
 800123c:	d9f7      	bls.n	800122e <HAL_RCC_OscConfig+0x7e>
 800123e:	2003      	movs	r0, #3
 8001240:	e7bb      	b.n	80011ba <HAL_RCC_OscConfig+0xa>
 8001242:	f5b3 2fa0 	cmp.w	r3, #327680	; 0x50000
 8001246:	d104      	bne.n	8001252 <HAL_RCC_OscConfig+0xa2>
 8001248:	682b      	ldr	r3, [r5, #0]
 800124a:	f443 2380 	orr.w	r3, r3, #262144	; 0x40000
 800124e:	602b      	str	r3, [r5, #0]
 8001250:	e7e5      	b.n	800121e <HAL_RCC_OscConfig+0x6e>
 8001252:	682a      	ldr	r2, [r5, #0]
 8001254:	f422 3280 	bic.w	r2, r2, #65536	; 0x10000
 8001258:	602a      	str	r2, [r5, #0]
 800125a:	682a      	ldr	r2, [r5, #0]
 800125c:	f422 2280 	bic.w	r2, r2, #262144	; 0x40000
 8001260:	602a      	str	r2, [r5, #0]
 8001262:	2b00      	cmp	r3, #0
 8001264:	d1df      	bne.n	8001226 <HAL_RCC_OscConfig+0x76>
 8001266:	f7ff f9d5 	bl	8000614 <HAL_GetTick>
 800126a:	4606      	mov	r6, r0
 800126c:	682b      	ldr	r3, [r5, #0]
 800126e:	039f      	lsls	r7, r3, #14
 8001270:	d5a9      	bpl.n	80011c6 <HAL_RCC_OscConfig+0x16>
 8001272:	f7ff f9cf 	bl	8000614 <HAL_GetTick>
 8001276:	1b80      	subs	r0, r0, r6
 8001278:	2864      	cmp	r0, #100	; 0x64
 800127a:	d9f7      	bls.n	800126c <HAL_RCC_OscConfig+0xbc>
 800127c:	e7df      	b.n	800123e <HAL_RCC_OscConfig+0x8e>
 800127e:	4b81      	ldr	r3, [pc, #516]	; (8001484 <HAL_RCC_OscConfig+0x2d4>)
 8001280:	689a      	ldr	r2, [r3, #8]
 8001282:	f012 0f0c 	tst.w	r2, #12
 8001286:	d007      	beq.n	8001298 <HAL_RCC_OscConfig+0xe8>
 8001288:	689a      	ldr	r2, [r3, #8]
 800128a:	f002 020c 	and.w	r2, r2, #12
 800128e:	2a08      	cmp	r2, #8
 8001290:	d111      	bne.n	80012b6 <HAL_RCC_OscConfig+0x106>
 8001292:	685b      	ldr	r3, [r3, #4]
 8001294:	025e      	lsls	r6, r3, #9
 8001296:	d40e      	bmi.n	80012b6 <HAL_RCC_OscConfig+0x106>
 8001298:	4b7a      	ldr	r3, [pc, #488]	; (8001484 <HAL_RCC_OscConfig+0x2d4>)
 800129a:	681a      	ldr	r2, [r3, #0]
 800129c:	0795      	lsls	r5, r2, #30
 800129e:	d502      	bpl.n	80012a6 <HAL_RCC_OscConfig+0xf6>
 80012a0:	68e2      	ldr	r2, [r4, #12]
 80012a2:	2a01      	cmp	r2, #1
 80012a4:	d188      	bne.n	80011b8 <HAL_RCC_OscConfig+0x8>
 80012a6:	681a      	ldr	r2, [r3, #0]
 80012a8:	6921      	ldr	r1, [r4, #16]
 80012aa:	f022 02f8 	bic.w	r2, r2, #248	; 0xf8
 80012ae:	ea42 02c1 	orr.w	r2, r2, r1, lsl #3
 80012b2:	601a      	str	r2, [r3, #0]
 80012b4:	e78a      	b.n	80011cc <HAL_RCC_OscConfig+0x1c>
 80012b6:	68e2      	ldr	r2, [r4, #12]
 80012b8:	4b73      	ldr	r3, [pc, #460]	; (8001488 <HAL_RCC_OscConfig+0x2d8>)
 80012ba:	b1b2      	cbz	r2, 80012ea <HAL_RCC_OscConfig+0x13a>
 80012bc:	2201      	movs	r2, #1
 80012be:	601a      	str	r2, [r3, #0]
 80012c0:	f7ff f9a8 	bl	8000614 <HAL_GetTick>
 80012c4:	4d6f      	ldr	r5, [pc, #444]	; (8001484 <HAL_RCC_OscConfig+0x2d4>)
 80012c6:	4606      	mov	r6, r0
 80012c8:	682b      	ldr	r3, [r5, #0]
 80012ca:	0798      	lsls	r0, r3, #30
 80012cc:	d507      	bpl.n	80012de <HAL_RCC_OscConfig+0x12e>
 80012ce:	682b      	ldr	r3, [r5, #0]
 80012d0:	6922      	ldr	r2, [r4, #16]
 80012d2:	f023 03f8 	bic.w	r3, r3, #248	; 0xf8
 80012d6:	ea43 03c2 	orr.w	r3, r3, r2, lsl #3
 80012da:	602b      	str	r3, [r5, #0]
 80012dc:	e776      	b.n	80011cc <HAL_RCC_OscConfig+0x1c>
 80012de:	f7ff f999 	bl	8000614 <HAL_GetTick>
 80012e2:	1b80      	subs	r0, r0, r6
 80012e4:	2802      	cmp	r0, #2
 80012e6:	d9ef      	bls.n	80012c8 <HAL_RCC_OscConfig+0x118>
 80012e8:	e7a9      	b.n	800123e <HAL_RCC_OscConfig+0x8e>
 80012ea:	601a      	str	r2, [r3, #0]
 80012ec:	f7ff f992 	bl	8000614 <HAL_GetTick>
 80012f0:	4d64      	ldr	r5, [pc, #400]	; (8001484 <HAL_RCC_OscConfig+0x2d4>)
 80012f2:	4606      	mov	r6, r0
 80012f4:	682b      	ldr	r3, [r5, #0]
 80012f6:	0799      	lsls	r1, r3, #30
 80012f8:	f57f af68 	bpl.w	80011cc <HAL_RCC_OscConfig+0x1c>
 80012fc:	f7ff f98a 	bl	8000614 <HAL_GetTick>
 8001300:	1b80      	subs	r0, r0, r6
 8001302:	2802      	cmp	r0, #2
 8001304:	d9f6      	bls.n	80012f4 <HAL_RCC_OscConfig+0x144>
 8001306:	e79a      	b.n	800123e <HAL_RCC_OscConfig+0x8e>
 8001308:	6962      	ldr	r2, [r4, #20]
 800130a:	4b60      	ldr	r3, [pc, #384]	; (800148c <HAL_RCC_OscConfig+0x2dc>)
 800130c:	b17a      	cbz	r2, 800132e <HAL_RCC_OscConfig+0x17e>
 800130e:	2201      	movs	r2, #1
 8001310:	601a      	str	r2, [r3, #0]
 8001312:	f7ff f97f 	bl	8000614 <HAL_GetTick>
 8001316:	4d5b      	ldr	r5, [pc, #364]	; (8001484 <HAL_RCC_OscConfig+0x2d4>)
 8001318:	4606      	mov	r6, r0
 800131a:	6f6b      	ldr	r3, [r5, #116]	; 0x74
 800131c:	079f      	lsls	r7, r3, #30
 800131e:	f53f af59 	bmi.w	80011d4 <HAL_RCC_OscConfig+0x24>
 8001322:	f7ff f977 	bl	8000614 <HAL_GetTick>
 8001326:	1b80      	subs	r0, r0, r6
 8001328:	2802      	cmp	r0, #2
 800132a:	d9f6      	bls.n	800131a <HAL_RCC_OscConfig+0x16a>
 800132c:	e787      	b.n	800123e <HAL_RCC_OscConfig+0x8e>
 800132e:	601a      	str	r2, [r3, #0]
 8001330:	f7ff f970 	bl	8000614 <HAL_GetTick>
 8001334:	4d53      	ldr	r5, [pc, #332]	; (8001484 <HAL_RCC_OscConfig+0x2d4>)
 8001336:	4606      	mov	r6, r0
 8001338:	6f6b      	ldr	r3, [r5, #116]	; 0x74
 800133a:	0798      	lsls	r0, r3, #30
 800133c:	f57f af4a 	bpl.w	80011d4 <HAL_RCC_OscConfig+0x24>
 8001340:	f7ff f968 	bl	8000614 <HAL_GetTick>
 8001344:	1b80      	subs	r0, r0, r6
 8001346:	2802      	cmp	r0, #2
 8001348:	d9f6      	bls.n	8001338 <HAL_RCC_OscConfig+0x188>
 800134a:	e778      	b.n	800123e <HAL_RCC_OscConfig+0x8e>
 800134c:	4b4d      	ldr	r3, [pc, #308]	; (8001484 <HAL_RCC_OscConfig+0x2d4>)
 800134e:	6c1a      	ldr	r2, [r3, #64]	; 0x40
 8001350:	f012 5280 	ands.w	r2, r2, #268435456	; 0x10000000
 8001354:	d128      	bne.n	80013a8 <HAL_RCC_OscConfig+0x1f8>
 8001356:	9201      	str	r2, [sp, #4]
 8001358:	6c1a      	ldr	r2, [r3, #64]	; 0x40
 800135a:	f042 5280 	orr.w	r2, r2, #268435456	; 0x10000000
 800135e:	641a      	str	r2, [r3, #64]	; 0x40
 8001360:	6c1b      	ldr	r3, [r3, #64]	; 0x40
 8001362:	f003 5380 	and.w	r3, r3, #268435456	; 0x10000000
 8001366:	9301      	str	r3, [sp, #4]
 8001368:	9b01      	ldr	r3, [sp, #4]
 800136a:	2601      	movs	r6, #1
 800136c:	4d48      	ldr	r5, [pc, #288]	; (8001490 <HAL_RCC_OscConfig+0x2e0>)
 800136e:	682b      	ldr	r3, [r5, #0]
 8001370:	05d9      	lsls	r1, r3, #23
 8001372:	d51b      	bpl.n	80013ac <HAL_RCC_OscConfig+0x1fc>
 8001374:	68a3      	ldr	r3, [r4, #8]
 8001376:	4d43      	ldr	r5, [pc, #268]	; (8001484 <HAL_RCC_OscConfig+0x2d4>)
 8001378:	2b01      	cmp	r3, #1
 800137a:	d127      	bne.n	80013cc <HAL_RCC_OscConfig+0x21c>
 800137c:	6f2b      	ldr	r3, [r5, #112]	; 0x70
 800137e:	f043 0301 	orr.w	r3, r3, #1
 8001382:	672b      	str	r3, [r5, #112]	; 0x70
 8001384:	f7ff f946 	bl	8000614 <HAL_GetTick>
 8001388:	4d3e      	ldr	r5, [pc, #248]	; (8001484 <HAL_RCC_OscConfig+0x2d4>)
 800138a:	4607      	mov	r7, r0
 800138c:	f241 3888 	movw	r8, #5000	; 0x1388
 8001390:	6f2b      	ldr	r3, [r5, #112]	; 0x70
 8001392:	079b      	lsls	r3, r3, #30
 8001394:	d539      	bpl.n	800140a <HAL_RCC_OscConfig+0x25a>
 8001396:	2e00      	cmp	r6, #0
 8001398:	f43f af20 	beq.w	80011dc <HAL_RCC_OscConfig+0x2c>
 800139c:	4a39      	ldr	r2, [pc, #228]	; (8001484 <HAL_RCC_OscConfig+0x2d4>)
 800139e:	6c13      	ldr	r3, [r2, #64]	; 0x40
 80013a0:	f023 5380 	bic.w	r3, r3, #268435456	; 0x10000000
 80013a4:	6413      	str	r3, [r2, #64]	; 0x40
 80013a6:	e719      	b.n	80011dc <HAL_RCC_OscConfig+0x2c>
 80013a8:	2600      	movs	r6, #0
 80013aa:	e7df      	b.n	800136c <HAL_RCC_OscConfig+0x1bc>
 80013ac:	682b      	ldr	r3, [r5, #0]
 80013ae:	f443 7380 	orr.w	r3, r3, #256	; 0x100
 80013b2:	602b      	str	r3, [r5, #0]
 80013b4:	f7ff f92e 	bl	8000614 <HAL_GetTick>
 80013b8:	4607      	mov	r7, r0
 80013ba:	682b      	ldr	r3, [r5, #0]
 80013bc:	05da      	lsls	r2, r3, #23
 80013be:	d4d9      	bmi.n	8001374 <HAL_RCC_OscConfig+0x1c4>
 80013c0:	f7ff f928 	bl	8000614 <HAL_GetTick>
 80013c4:	1bc0      	subs	r0, r0, r7
 80013c6:	2802      	cmp	r0, #2
 80013c8:	d9f7      	bls.n	80013ba <HAL_RCC_OscConfig+0x20a>
 80013ca:	e738      	b.n	800123e <HAL_RCC_OscConfig+0x8e>
 80013cc:	2b05      	cmp	r3, #5
 80013ce:	d104      	bne.n	80013da <HAL_RCC_OscConfig+0x22a>
 80013d0:	6f2b      	ldr	r3, [r5, #112]	; 0x70
 80013d2:	f043 0304 	orr.w	r3, r3, #4
 80013d6:	672b      	str	r3, [r5, #112]	; 0x70
 80013d8:	e7d0      	b.n	800137c <HAL_RCC_OscConfig+0x1cc>
 80013da:	6f2a      	ldr	r2, [r5, #112]	; 0x70
 80013dc:	f022 0201 	bic.w	r2, r2, #1
 80013e0:	672a      	str	r2, [r5, #112]	; 0x70
 80013e2:	6f2a      	ldr	r2, [r5, #112]	; 0x70
 80013e4:	f022 0204 	bic.w	r2, r2, #4
 80013e8:	672a      	str	r2, [r5, #112]	; 0x70
 80013ea:	2b00      	cmp	r3, #0
 80013ec:	d1ca      	bne.n	8001384 <HAL_RCC_OscConfig+0x1d4>
 80013ee:	f7ff f911 	bl	8000614 <HAL_GetTick>
 80013f2:	f241 3888 	movw	r8, #5000	; 0x1388
 80013f6:	4607      	mov	r7, r0
 80013f8:	6f2b      	ldr	r3, [r5, #112]	; 0x70
 80013fa:	0798      	lsls	r0, r3, #30
 80013fc:	d5cb      	bpl.n	8001396 <HAL_RCC_OscConfig+0x1e6>
 80013fe:	f7ff f909 	bl	8000614 <HAL_GetTick>
 8001402:	1bc0      	subs	r0, r0, r7
 8001404:	4540      	cmp	r0, r8
 8001406:	d9f7      	bls.n	80013f8 <HAL_RCC_OscConfig+0x248>
 8001408:	e719      	b.n	800123e <HAL_RCC_OscConfig+0x8e>
 800140a:	f7ff f903 	bl	8000614 <HAL_GetTick>
 800140e:	1bc0      	subs	r0, r0, r7
 8001410:	4540      	cmp	r0, r8
 8001412:	d9bd      	bls.n	8001390 <HAL_RCC_OscConfig+0x1e0>
 8001414:	e713      	b.n	800123e <HAL_RCC_OscConfig+0x8e>
 8001416:	4d1b      	ldr	r5, [pc, #108]	; (8001484 <HAL_RCC_OscConfig+0x2d4>)
 8001418:	68ab      	ldr	r3, [r5, #8]
 800141a:	f003 030c 	and.w	r3, r3, #12
 800141e:	2b08      	cmp	r3, #8
 8001420:	f43f aeca 	beq.w	80011b8 <HAL_RCC_OscConfig+0x8>
 8001424:	4e1b      	ldr	r6, [pc, #108]	; (8001494 <HAL_RCC_OscConfig+0x2e4>)
 8001426:	2300      	movs	r3, #0
 8001428:	2a02      	cmp	r2, #2
 800142a:	6033      	str	r3, [r6, #0]
 800142c:	d134      	bne.n	8001498 <HAL_RCC_OscConfig+0x2e8>
 800142e:	f7ff f8f1 	bl	8000614 <HAL_GetTick>
 8001432:	4607      	mov	r7, r0
 8001434:	682b      	ldr	r3, [r5, #0]
 8001436:	0199      	lsls	r1, r3, #6
 8001438:	d41e      	bmi.n	8001478 <HAL_RCC_OscConfig+0x2c8>
 800143a:	6a22      	ldr	r2, [r4, #32]
 800143c:	69e3      	ldr	r3, [r4, #28]
 800143e:	4313      	orrs	r3, r2
 8001440:	6a62      	ldr	r2, [r4, #36]	; 0x24
 8001442:	ea43 1382 	orr.w	r3, r3, r2, lsl #6
 8001446:	6ae2      	ldr	r2, [r4, #44]	; 0x2c
 8001448:	ea43 6302 	orr.w	r3, r3, r2, lsl #24
 800144c:	6aa2      	ldr	r2, [r4, #40]	; 0x28
 800144e:	4c0d      	ldr	r4, [pc, #52]	; (8001484 <HAL_RCC_OscConfig+0x2d4>)
 8001450:	0852      	lsrs	r2, r2, #1
 8001452:	3a01      	subs	r2, #1
 8001454:	ea43 4302 	orr.w	r3, r3, r2, lsl #16
 8001458:	606b      	str	r3, [r5, #4]
 800145a:	2301      	movs	r3, #1
 800145c:	6033      	str	r3, [r6, #0]
 800145e:	f7ff f8d9 	bl	8000614 <HAL_GetTick>
 8001462:	4605      	mov	r5, r0
 8001464:	6823      	ldr	r3, [r4, #0]
 8001466:	019a      	lsls	r2, r3, #6
 8001468:	f53f aebc 	bmi.w	80011e4 <HAL_RCC_OscConfig+0x34>
 800146c:	f7ff f8d2 	bl	8000614 <HAL_GetTick>
 8001470:	1b40      	subs	r0, r0, r5
 8001472:	2802      	cmp	r0, #2
 8001474:	d9f6      	bls.n	8001464 <HAL_RCC_OscConfig+0x2b4>
 8001476:	e6e2      	b.n	800123e <HAL_RCC_OscConfig+0x8e>
 8001478:	f7ff f8cc 	bl	8000614 <HAL_GetTick>
 800147c:	1bc0      	subs	r0, r0, r7
 800147e:	2802      	cmp	r0, #2
 8001480:	d9d8      	bls.n	8001434 <HAL_RCC_OscConfig+0x284>
 8001482:	e6dc      	b.n	800123e <HAL_RCC_OscConfig+0x8e>
 8001484:	40023800 	.word	0x40023800
 8001488:	42470000 	.word	0x42470000
 800148c:	42470e80 	.word	0x42470e80
 8001490:	40007000 	.word	0x40007000
 8001494:	42470060 	.word	0x42470060
 8001498:	f7ff f8bc 	bl	8000614 <HAL_GetTick>
 800149c:	4604      	mov	r4, r0
 800149e:	682b      	ldr	r3, [r5, #0]
 80014a0:	019b      	lsls	r3, r3, #6
 80014a2:	f57f ae9f 	bpl.w	80011e4 <HAL_RCC_OscConfig+0x34>
 80014a6:	f7ff f8b5 	bl	8000614 <HAL_GetTick>
 80014aa:	1b00      	subs	r0, r0, r4
 80014ac:	2802      	cmp	r0, #2
 80014ae:	d9f6      	bls.n	800149e <HAL_RCC_OscConfig+0x2ee>
 80014b0:	e6c5      	b.n	800123e <HAL_RCC_OscConfig+0x8e>
 80014b2:	bf00      	nop

080014b4 <HAL_RCC_GetSysClockFreq>:
 80014b4:	4913      	ldr	r1, [pc, #76]	; (8001504 <HAL_RCC_GetSysClockFreq+0x50>)
 80014b6:	b508      	push	{r3, lr}
 80014b8:	688b      	ldr	r3, [r1, #8]
 80014ba:	f003 030c 	and.w	r3, r3, #12
 80014be:	2b04      	cmp	r3, #4
 80014c0:	d003      	beq.n	80014ca <HAL_RCC_GetSysClockFreq+0x16>
 80014c2:	2b08      	cmp	r3, #8
 80014c4:	d003      	beq.n	80014ce <HAL_RCC_GetSysClockFreq+0x1a>
 80014c6:	4810      	ldr	r0, [pc, #64]	; (8001508 <HAL_RCC_GetSysClockFreq+0x54>)
 80014c8:	bd08      	pop	{r3, pc}
 80014ca:	4810      	ldr	r0, [pc, #64]	; (800150c <HAL_RCC_GetSysClockFreq+0x58>)
 80014cc:	bd08      	pop	{r3, pc}
 80014ce:	684a      	ldr	r2, [r1, #4]
 80014d0:	684b      	ldr	r3, [r1, #4]
 80014d2:	6849      	ldr	r1, [r1, #4]
 80014d4:	f413 0380 	ands.w	r3, r3, #4194304	; 0x400000
 80014d8:	bf14      	ite	ne
 80014da:	480c      	ldrne	r0, [pc, #48]	; (800150c <HAL_RCC_GetSysClockFreq+0x58>)
 80014dc:	480a      	ldreq	r0, [pc, #40]	; (8001508 <HAL_RCC_GetSysClockFreq+0x54>)
 80014de:	f3c1 1188 	ubfx	r1, r1, #6, #9
 80014e2:	bf18      	it	ne
 80014e4:	2300      	movne	r3, #0
 80014e6:	f002 023f 	and.w	r2, r2, #63	; 0x3f
 80014ea:	fba1 0100 	umull	r0, r1, r1, r0
 80014ee:	f7fe febf 	bl	8000270 <__aeabi_uldivmod>
 80014f2:	4b04      	ldr	r3, [pc, #16]	; (8001504 <HAL_RCC_GetSysClockFreq+0x50>)
 80014f4:	685b      	ldr	r3, [r3, #4]
 80014f6:	f3c3 4301 	ubfx	r3, r3, #16, #2
 80014fa:	3301      	adds	r3, #1
 80014fc:	005b      	lsls	r3, r3, #1
 80014fe:	fbb0 f0f3 	udiv	r0, r0, r3
 8001502:	bd08      	pop	{r3, pc}
 8001504:	40023800 	.word	0x40023800
 8001508:	00f42400 	.word	0x00f42400
 800150c:	007a1200 	.word	0x007a1200

08001510 <HAL_RCC_ClockConfig>:
 8001510:	e92d 41f0 	stmdb	sp!, {r4, r5, r6, r7, r8, lr}
 8001514:	460d      	mov	r5, r1
 8001516:	4604      	mov	r4, r0
 8001518:	b910      	cbnz	r0, 8001520 <HAL_RCC_ClockConfig+0x10>
 800151a:	2001      	movs	r0, #1
 800151c:	e8bd 81f0 	ldmia.w	sp!, {r4, r5, r6, r7, r8, pc}
 8001520:	4b44      	ldr	r3, [pc, #272]	; (8001634 <HAL_RCC_ClockConfig+0x124>)
 8001522:	681a      	ldr	r2, [r3, #0]
 8001524:	f002 020f 	and.w	r2, r2, #15
 8001528:	428a      	cmp	r2, r1
 800152a:	d328      	bcc.n	800157e <HAL_RCC_ClockConfig+0x6e>
 800152c:	6821      	ldr	r1, [r4, #0]
 800152e:	078f      	lsls	r7, r1, #30
 8001530:	d42d      	bmi.n	800158e <HAL_RCC_ClockConfig+0x7e>
 8001532:	07c8      	lsls	r0, r1, #31
 8001534:	d440      	bmi.n	80015b8 <HAL_RCC_ClockConfig+0xa8>
 8001536:	4b3f      	ldr	r3, [pc, #252]	; (8001634 <HAL_RCC_ClockConfig+0x124>)
 8001538:	681a      	ldr	r2, [r3, #0]
 800153a:	f002 020f 	and.w	r2, r2, #15
 800153e:	4295      	cmp	r5, r2
 8001540:	d366      	bcc.n	8001610 <HAL_RCC_ClockConfig+0x100>
 8001542:	6822      	ldr	r2, [r4, #0]
 8001544:	0751      	lsls	r1, r2, #29
 8001546:	d46c      	bmi.n	8001622 <HAL_RCC_ClockConfig+0x112>
 8001548:	0713      	lsls	r3, r2, #28
 800154a:	d507      	bpl.n	800155c <HAL_RCC_ClockConfig+0x4c>
 800154c:	4a3a      	ldr	r2, [pc, #232]	; (8001638 <HAL_RCC_ClockConfig+0x128>)
 800154e:	6921      	ldr	r1, [r4, #16]
 8001550:	6893      	ldr	r3, [r2, #8]
 8001552:	f423 4360 	bic.w	r3, r3, #57344	; 0xe000
 8001556:	ea43 03c1 	orr.w	r3, r3, r1, lsl #3
 800155a:	6093      	str	r3, [r2, #8]
 800155c:	f7ff ffaa 	bl	80014b4 <HAL_RCC_GetSysClockFreq>
 8001560:	4b35      	ldr	r3, [pc, #212]	; (8001638 <HAL_RCC_ClockConfig+0x128>)
 8001562:	4a36      	ldr	r2, [pc, #216]	; (800163c <HAL_RCC_ClockConfig+0x12c>)
 8001564:	689b      	ldr	r3, [r3, #8]
 8001566:	f3c3 1303 	ubfx	r3, r3, #4, #4
 800156a:	5cd3      	ldrb	r3, [r2, r3]
 800156c:	40d8      	lsrs	r0, r3
 800156e:	4b34      	ldr	r3, [pc, #208]	; (8001640 <HAL_RCC_ClockConfig+0x130>)
 8001570:	6018      	str	r0, [r3, #0]
 8001572:	2000      	movs	r0, #0
 8001574:	f7ff f804 	bl	8000580 <HAL_InitTick>
 8001578:	2000      	movs	r0, #0
 800157a:	e8bd 81f0 	ldmia.w	sp!, {r4, r5, r6, r7, r8, pc}
 800157e:	b2ca      	uxtb	r2, r1
 8001580:	701a      	strb	r2, [r3, #0]
 8001582:	681b      	ldr	r3, [r3, #0]
 8001584:	f003 030f 	and.w	r3, r3, #15
 8001588:	4299      	cmp	r1, r3
 800158a:	d1c6      	bne.n	800151a <HAL_RCC_ClockConfig+0xa>
 800158c:	e7ce      	b.n	800152c <HAL_RCC_ClockConfig+0x1c>
 800158e:	4b2a      	ldr	r3, [pc, #168]	; (8001638 <HAL_RCC_ClockConfig+0x128>)
 8001590:	f011 0f04 	tst.w	r1, #4
 8001594:	bf1e      	ittt	ne
 8001596:	689a      	ldrne	r2, [r3, #8]
 8001598:	f442 52e0 	orrne.w	r2, r2, #7168	; 0x1c00
 800159c:	609a      	strne	r2, [r3, #8]
 800159e:	070e      	lsls	r6, r1, #28
 80015a0:	bf42      	ittt	mi
 80015a2:	689a      	ldrmi	r2, [r3, #8]
 80015a4:	f442 4260 	orrmi.w	r2, r2, #57344	; 0xe000
 80015a8:	609a      	strmi	r2, [r3, #8]
 80015aa:	689a      	ldr	r2, [r3, #8]
 80015ac:	68a0      	ldr	r0, [r4, #8]
 80015ae:	f022 02f0 	bic.w	r2, r2, #240	; 0xf0
 80015b2:	4302      	orrs	r2, r0
 80015b4:	609a      	str	r2, [r3, #8]
 80015b6:	e7bc      	b.n	8001532 <HAL_RCC_ClockConfig+0x22>
 80015b8:	6862      	ldr	r2, [r4, #4]
 80015ba:	4b1f      	ldr	r3, [pc, #124]	; (8001638 <HAL_RCC_ClockConfig+0x128>)
 80015bc:	2a01      	cmp	r2, #1
 80015be:	d11d      	bne.n	80015fc <HAL_RCC_ClockConfig+0xec>
 80015c0:	681b      	ldr	r3, [r3, #0]
 80015c2:	f413 3f00 	tst.w	r3, #131072	; 0x20000
 80015c6:	d0a8      	beq.n	800151a <HAL_RCC_ClockConfig+0xa>
 80015c8:	4e1b      	ldr	r6, [pc, #108]	; (8001638 <HAL_RCC_ClockConfig+0x128>)
 80015ca:	68b3      	ldr	r3, [r6, #8]
 80015cc:	f023 0303 	bic.w	r3, r3, #3
 80015d0:	4313      	orrs	r3, r2
 80015d2:	60b3      	str	r3, [r6, #8]
 80015d4:	f7ff f81e 	bl	8000614 <HAL_GetTick>
 80015d8:	f241 3888 	movw	r8, #5000	; 0x1388
 80015dc:	4607      	mov	r7, r0
 80015de:	68b3      	ldr	r3, [r6, #8]
 80015e0:	6862      	ldr	r2, [r4, #4]
 80015e2:	f003 030c 	and.w	r3, r3, #12
 80015e6:	ebb3 0f82 	cmp.w	r3, r2, lsl #2
 80015ea:	d0a4      	beq.n	8001536 <HAL_RCC_ClockConfig+0x26>
 80015ec:	f7ff f812 	bl	8000614 <HAL_GetTick>
 80015f0:	1bc0      	subs	r0, r0, r7
 80015f2:	4540      	cmp	r0, r8
 80015f4:	d9f3      	bls.n	80015de <HAL_RCC_ClockConfig+0xce>
 80015f6:	2003      	movs	r0, #3
 80015f8:	e8bd 81f0 	ldmia.w	sp!, {r4, r5, r6, r7, r8, pc}
 80015fc:	1e91      	subs	r1, r2, #2
 80015fe:	2901      	cmp	r1, #1
 8001600:	681b      	ldr	r3, [r3, #0]
 8001602:	d802      	bhi.n	800160a <HAL_RCC_ClockConfig+0xfa>
 8001604:	f013 7f00 	tst.w	r3, #33554432	; 0x2000000
 8001608:	e7dd      	b.n	80015c6 <HAL_RCC_ClockConfig+0xb6>
 800160a:	f013 0f02 	tst.w	r3, #2
 800160e:	e7da      	b.n	80015c6 <HAL_RCC_ClockConfig+0xb6>
 8001610:	b2ea      	uxtb	r2, r5
 8001612:	701a      	strb	r2, [r3, #0]
 8001614:	681b      	ldr	r3, [r3, #0]
 8001616:	f003 030f 	and.w	r3, r3, #15
 800161a:	429d      	cmp	r5, r3
 800161c:	f47f af7d 	bne.w	800151a <HAL_RCC_ClockConfig+0xa>
 8001620:	e78f      	b.n	8001542 <HAL_RCC_ClockConfig+0x32>
 8001622:	4905      	ldr	r1, [pc, #20]	; (8001638 <HAL_RCC_ClockConfig+0x128>)
 8001624:	68e0      	ldr	r0, [r4, #12]
 8001626:	688b      	ldr	r3, [r1, #8]
 8001628:	f423 53e0 	bic.w	r3, r3, #7168	; 0x1c00
 800162c:	4303      	orrs	r3, r0
 800162e:	608b      	str	r3, [r1, #8]
 8001630:	e78a      	b.n	8001548 <HAL_RCC_ClockConfig+0x38>
 8001632:	bf00      	nop
 8001634:	40023c00 	.word	0x40023c00
 8001638:	40023800 	.word	0x40023800
 800163c:	080036cc 	.word	0x080036cc
 8001640:	20000118 	.word	0x20000118

08001644 <HAL_RCC_GetHCLKFreq>:
 8001644:	4b01      	ldr	r3, [pc, #4]	; (800164c <HAL_RCC_GetHCLKFreq+0x8>)
 8001646:	6818      	ldr	r0, [r3, #0]
 8001648:	4770      	bx	lr
 800164a:	bf00      	nop
 800164c:	20000118 	.word	0x20000118

08001650 <USB_CoreInit>:
 8001650:	b084      	sub	sp, #16
 8001652:	b538      	push	{r3, r4, r5, lr}
 8001654:	ad05      	add	r5, sp, #20
 8001656:	e885 000e 	stmia.w	r5, {r1, r2, r3}
 800165a:	9b0a      	ldr	r3, [sp, #40]	; 0x28
 800165c:	2b01      	cmp	r3, #1
 800165e:	4604      	mov	r4, r0
 8001660:	d126      	bne.n	80016b0 <USB_CoreInit+0x60>
 8001662:	6b83      	ldr	r3, [r0, #56]	; 0x38
 8001664:	f423 3380 	bic.w	r3, r3, #65536	; 0x10000
 8001668:	6383      	str	r3, [r0, #56]	; 0x38
 800166a:	68c3      	ldr	r3, [r0, #12]
 800166c:	f423 0384 	bic.w	r3, r3, #4325376	; 0x420000
 8001670:	f023 0340 	bic.w	r3, r3, #64	; 0x40
 8001674:	60c3      	str	r3, [r0, #12]
 8001676:	68c3      	ldr	r3, [r0, #12]
 8001678:	f423 1340 	bic.w	r3, r3, #3145728	; 0x300000
 800167c:	60c3      	str	r3, [r0, #12]
 800167e:	9b11      	ldr	r3, [sp, #68]	; 0x44
 8001680:	2b01      	cmp	r3, #1
 8001682:	bf02      	ittt	eq
 8001684:	68c3      	ldreq	r3, [r0, #12]
 8001686:	f443 1380 	orreq.w	r3, r3, #1048576	; 0x100000
 800168a:	60c3      	streq	r3, [r0, #12]
 800168c:	f000 fbde 	bl	8001e4c <USB_CoreReset>
 8001690:	9b08      	ldr	r3, [sp, #32]
 8001692:	2b01      	cmp	r3, #1
 8001694:	d107      	bne.n	80016a6 <USB_CoreInit+0x56>
 8001696:	68a3      	ldr	r3, [r4, #8]
 8001698:	f043 0306 	orr.w	r3, r3, #6
 800169c:	60a3      	str	r3, [r4, #8]
 800169e:	68a3      	ldr	r3, [r4, #8]
 80016a0:	f043 0320 	orr.w	r3, r3, #32
 80016a4:	60a3      	str	r3, [r4, #8]
 80016a6:	e8bd 4038 	ldmia.w	sp!, {r3, r4, r5, lr}
 80016aa:	2000      	movs	r0, #0
 80016ac:	b004      	add	sp, #16
 80016ae:	4770      	bx	lr
 80016b0:	68c3      	ldr	r3, [r0, #12]
 80016b2:	f043 0340 	orr.w	r3, r3, #64	; 0x40
 80016b6:	60c3      	str	r3, [r0, #12]
 80016b8:	f000 fbc8 	bl	8001e4c <USB_CoreReset>
 80016bc:	f44f 3380 	mov.w	r3, #65536	; 0x10000
 80016c0:	63a3      	str	r3, [r4, #56]	; 0x38
 80016c2:	e7e5      	b.n	8001690 <USB_CoreInit+0x40>

080016c4 <USB_EnableGlobalInt>:
 80016c4:	6883      	ldr	r3, [r0, #8]
 80016c6:	f043 0301 	orr.w	r3, r3, #1
 80016ca:	6083      	str	r3, [r0, #8]
 80016cc:	2000      	movs	r0, #0
 80016ce:	4770      	bx	lr

080016d0 <USB_DisableGlobalInt>:
 80016d0:	6883      	ldr	r3, [r0, #8]
 80016d2:	f023 0301 	bic.w	r3, r3, #1
 80016d6:	6083      	str	r3, [r0, #8]
 80016d8:	2000      	movs	r0, #0
 80016da:	4770      	bx	lr

080016dc <USB_SetCurrentMode>:
 80016dc:	b508      	push	{r3, lr}
 80016de:	68c3      	ldr	r3, [r0, #12]
 80016e0:	2901      	cmp	r1, #1
 80016e2:	f023 43c0 	bic.w	r3, r3, #1610612736	; 0x60000000
 80016e6:	60c3      	str	r3, [r0, #12]
 80016e8:	d108      	bne.n	80016fc <USB_SetCurrentMode+0x20>
 80016ea:	68c3      	ldr	r3, [r0, #12]
 80016ec:	f043 5300 	orr.w	r3, r3, #536870912	; 0x20000000
 80016f0:	60c3      	str	r3, [r0, #12]
 80016f2:	2032      	movs	r0, #50	; 0x32
 80016f4:	f7fe ff94 	bl	8000620 <HAL_Delay>
 80016f8:	2000      	movs	r0, #0
 80016fa:	bd08      	pop	{r3, pc}
 80016fc:	2900      	cmp	r1, #0
 80016fe:	d1f8      	bne.n	80016f2 <USB_SetCurrentMode+0x16>
 8001700:	68c3      	ldr	r3, [r0, #12]
 8001702:	f043 4380 	orr.w	r3, r3, #1073741824	; 0x40000000
 8001706:	60c3      	str	r3, [r0, #12]
 8001708:	e7f3      	b.n	80016f2 <USB_SetCurrentMode+0x16>
	...

0800170c <USB_DevInit>:
 800170c:	b084      	sub	sp, #16
 800170e:	e92d 41f0 	stmdb	sp!, {r4, r5, r6, r7, r8, lr}
 8001712:	4604      	mov	r4, r0
 8001714:	a807      	add	r0, sp, #28
 8001716:	e880 000e 	stmia.w	r0, {r1, r2, r3}
 800171a:	9e11      	ldr	r6, [sp, #68]	; 0x44
 800171c:	9f0a      	ldr	r7, [sp, #40]	; 0x28
 800171e:	6ba3      	ldr	r3, [r4, #56]	; 0x38
 8001720:	4688      	mov	r8, r1
 8001722:	b9a6      	cbnz	r6, 800174e <USB_DevInit+0x42>
 8001724:	f443 1300 	orr.w	r3, r3, #2097152	; 0x200000
 8001728:	63a3      	str	r3, [r4, #56]	; 0x38
 800172a:	2300      	movs	r3, #0
 800172c:	f8c4 3e00 	str.w	r3, [r4, #3584]	; 0xe00
 8001730:	f8d4 3800 	ldr.w	r3, [r4, #2048]	; 0x800
 8001734:	f8c4 3800 	str.w	r3, [r4, #2048]	; 0x800
 8001738:	9b0c      	ldr	r3, [sp, #48]	; 0x30
 800173a:	2b01      	cmp	r3, #1
 800173c:	f504 6500 	add.w	r5, r4, #2048	; 0x800
 8001740:	d15e      	bne.n	8001800 <USB_DevInit+0xf4>
 8001742:	9909      	ldr	r1, [sp, #36]	; 0x24
 8001744:	b939      	cbnz	r1, 8001756 <USB_DevInit+0x4a>
 8001746:	4620      	mov	r0, r4
 8001748:	f000 f89e 	bl	8001888 <USB_SetDevSpeed>
 800174c:	e007      	b.n	800175e <USB_DevInit+0x52>
 800174e:	f443 2300 	orr.w	r3, r3, #524288	; 0x80000
 8001752:	63a3      	str	r3, [r4, #56]	; 0x38
 8001754:	e7e9      	b.n	800172a <USB_DevInit+0x1e>
 8001756:	4619      	mov	r1, r3
 8001758:	4620      	mov	r0, r4
 800175a:	f000 f895 	bl	8001888 <USB_SetDevSpeed>
 800175e:	2110      	movs	r1, #16
 8001760:	4620      	mov	r0, r4
 8001762:	f000 f86f 	bl	8001844 <USB_FlushTxFifo>
 8001766:	4620      	mov	r0, r4
 8001768:	f000 f87e 	bl	8001868 <USB_FlushRxFifo>
 800176c:	2300      	movs	r3, #0
 800176e:	f04f 32ff 	mov.w	r2, #4294967295
 8001772:	612b      	str	r3, [r5, #16]
 8001774:	4619      	mov	r1, r3
 8001776:	616b      	str	r3, [r5, #20]
 8001778:	f04f 4090 	mov.w	r0, #1207959552	; 0x48000000
 800177c:	61aa      	str	r2, [r5, #24]
 800177e:	f04f 0eff 	mov.w	lr, #255	; 0xff
 8001782:	61eb      	str	r3, [r5, #28]
 8001784:	f504 6210 	add.w	r2, r4, #2304	; 0x900
 8001788:	4543      	cmp	r3, r8
 800178a:	d13b      	bne.n	8001804 <USB_DevInit+0xf8>
 800178c:	2100      	movs	r1, #0
 800178e:	f504 6230 	add.w	r2, r4, #2816	; 0xb00
 8001792:	4608      	mov	r0, r1
 8001794:	f04f 4e90 	mov.w	lr, #1207959552	; 0x48000000
 8001798:	f04f 0cff 	mov.w	ip, #255	; 0xff
 800179c:	428b      	cmp	r3, r1
 800179e:	d13e      	bne.n	800181e <USB_DevInit+0x112>
 80017a0:	692b      	ldr	r3, [r5, #16]
 80017a2:	2f01      	cmp	r7, #1
 80017a4:	f423 7380 	bic.w	r3, r3, #256	; 0x100
 80017a8:	612b      	str	r3, [r5, #16]
 80017aa:	d108      	bne.n	80017be <USB_DevInit+0xb2>
 80017ac:	4b23      	ldr	r3, [pc, #140]	; (800183c <USB_DevInit+0x130>)
 80017ae:	632b      	str	r3, [r5, #48]	; 0x30
 80017b0:	6b2b      	ldr	r3, [r5, #48]	; 0x30
 80017b2:	f443 3380 	orr.w	r3, r3, #65536	; 0x10000
 80017b6:	f043 0303 	orr.w	r3, r3, #3
 80017ba:	632b      	str	r3, [r5, #48]	; 0x30
 80017bc:	6b2b      	ldr	r3, [r5, #48]	; 0x30
 80017be:	2300      	movs	r3, #0
 80017c0:	61a3      	str	r3, [r4, #24]
 80017c2:	f06f 4380 	mvn.w	r3, #1073741824	; 0x40000000
 80017c6:	6163      	str	r3, [r4, #20]
 80017c8:	b91f      	cbnz	r7, 80017d2 <USB_DevInit+0xc6>
 80017ca:	69a3      	ldr	r3, [r4, #24]
 80017cc:	f043 0310 	orr.w	r3, r3, #16
 80017d0:	61a3      	str	r3, [r4, #24]
 80017d2:	69a2      	ldr	r2, [r4, #24]
 80017d4:	4b1a      	ldr	r3, [pc, #104]	; (8001840 <USB_DevInit+0x134>)
 80017d6:	4313      	orrs	r3, r2
 80017d8:	61a3      	str	r3, [r4, #24]
 80017da:	9b0d      	ldr	r3, [sp, #52]	; 0x34
 80017dc:	b11b      	cbz	r3, 80017e6 <USB_DevInit+0xda>
 80017de:	69a3      	ldr	r3, [r4, #24]
 80017e0:	f043 0308 	orr.w	r3, r3, #8
 80017e4:	61a3      	str	r3, [r4, #24]
 80017e6:	2e01      	cmp	r6, #1
 80017e8:	bf01      	itttt	eq
 80017ea:	69a3      	ldreq	r3, [r4, #24]
 80017ec:	f043 4380 	orreq.w	r3, r3, #1073741824	; 0x40000000
 80017f0:	f043 0304 	orreq.w	r3, r3, #4
 80017f4:	61a3      	streq	r3, [r4, #24]
 80017f6:	e8bd 41f0 	ldmia.w	sp!, {r4, r5, r6, r7, r8, lr}
 80017fa:	2000      	movs	r0, #0
 80017fc:	b004      	add	sp, #16
 80017fe:	4770      	bx	lr
 8001800:	2103      	movs	r1, #3
 8001802:	e7a0      	b.n	8001746 <USB_DevInit+0x3a>
 8001804:	f8d2 c000 	ldr.w	ip, [r2]
 8001808:	f1bc 0f00 	cmp.w	ip, #0
 800180c:	bfb4      	ite	lt
 800180e:	6010      	strlt	r0, [r2, #0]
 8001810:	6011      	strge	r1, [r2, #0]
 8001812:	3301      	adds	r3, #1
 8001814:	6111      	str	r1, [r2, #16]
 8001816:	f8c2 e008 	str.w	lr, [r2, #8]
 800181a:	3220      	adds	r2, #32
 800181c:	e7b4      	b.n	8001788 <USB_DevInit+0x7c>
 800181e:	f8d2 8000 	ldr.w	r8, [r2]
 8001822:	f1b8 0f00 	cmp.w	r8, #0
 8001826:	bfb4      	ite	lt
 8001828:	f8c2 e000 	strlt.w	lr, [r2]
 800182c:	6010      	strge	r0, [r2, #0]
 800182e:	3101      	adds	r1, #1
 8001830:	6110      	str	r0, [r2, #16]
 8001832:	f8c2 c008 	str.w	ip, [r2, #8]
 8001836:	3220      	adds	r2, #32
 8001838:	e7b0      	b.n	800179c <USB_DevInit+0x90>
 800183a:	bf00      	nop
 800183c:	00800100 	.word	0x00800100
 8001840:	803c3800 	.word	0x803c3800

08001844 <USB_FlushTxFifo>:
 8001844:	0189      	lsls	r1, r1, #6
 8001846:	f041 0120 	orr.w	r1, r1, #32
 800184a:	4a06      	ldr	r2, [pc, #24]	; (8001864 <USB_FlushTxFifo+0x20>)
 800184c:	6101      	str	r1, [r0, #16]
 800184e:	3a01      	subs	r2, #1
 8001850:	d005      	beq.n	800185e <USB_FlushTxFifo+0x1a>
 8001852:	6903      	ldr	r3, [r0, #16]
 8001854:	f013 0320 	ands.w	r3, r3, #32
 8001858:	d1f9      	bne.n	800184e <USB_FlushTxFifo+0xa>
 800185a:	4618      	mov	r0, r3
 800185c:	4770      	bx	lr
 800185e:	2003      	movs	r0, #3
 8001860:	4770      	bx	lr
 8001862:	bf00      	nop
 8001864:	00030d41 	.word	0x00030d41

08001868 <USB_FlushRxFifo>:
 8001868:	2310      	movs	r3, #16
 800186a:	4a06      	ldr	r2, [pc, #24]	; (8001884 <USB_FlushRxFifo+0x1c>)
 800186c:	6103      	str	r3, [r0, #16]
 800186e:	3a01      	subs	r2, #1
 8001870:	d005      	beq.n	800187e <USB_FlushRxFifo+0x16>
 8001872:	6903      	ldr	r3, [r0, #16]
 8001874:	f013 0310 	ands.w	r3, r3, #16
 8001878:	d1f9      	bne.n	800186e <USB_FlushRxFifo+0x6>
 800187a:	4618      	mov	r0, r3
 800187c:	4770      	bx	lr
 800187e:	2003      	movs	r0, #3
 8001880:	4770      	bx	lr
 8001882:	bf00      	nop
 8001884:	00030d41 	.word	0x00030d41

08001888 <USB_SetDevSpeed>:
 8001888:	f8d0 3800 	ldr.w	r3, [r0, #2048]	; 0x800
 800188c:	4319      	orrs	r1, r3
 800188e:	f8c0 1800 	str.w	r1, [r0, #2048]	; 0x800
 8001892:	2000      	movs	r0, #0
 8001894:	4770      	bx	lr

08001896 <USB_GetDevSpeed>:
 8001896:	f500 6200 	add.w	r2, r0, #2048	; 0x800
 800189a:	f8d0 0808 	ldr.w	r0, [r0, #2056]	; 0x808
 800189e:	f010 0006 	ands.w	r0, r0, #6
 80018a2:	d012      	beq.n	80018ca <USB_GetDevSpeed+0x34>
 80018a4:	6893      	ldr	r3, [r2, #8]
 80018a6:	f003 0306 	and.w	r3, r3, #6
 80018aa:	2b02      	cmp	r3, #2
 80018ac:	d00c      	beq.n	80018c8 <USB_GetDevSpeed+0x32>
 80018ae:	6893      	ldr	r3, [r2, #8]
 80018b0:	f003 0306 	and.w	r3, r3, #6
 80018b4:	2b06      	cmp	r3, #6
 80018b6:	d007      	beq.n	80018c8 <USB_GetDevSpeed+0x32>
 80018b8:	6893      	ldr	r3, [r2, #8]
 80018ba:	f003 0306 	and.w	r3, r3, #6
 80018be:	2b04      	cmp	r3, #4
 80018c0:	bf14      	ite	ne
 80018c2:	2000      	movne	r0, #0
 80018c4:	2002      	moveq	r0, #2
 80018c6:	4770      	bx	lr
 80018c8:	2003      	movs	r0, #3
 80018ca:	4770      	bx	lr

080018cc <USB_ActivateEndpoint>:
 80018cc:	b530      	push	{r4, r5, lr}
 80018ce:	784b      	ldrb	r3, [r1, #1]
 80018d0:	780c      	ldrb	r4, [r1, #0]
 80018d2:	f8d0 581c 	ldr.w	r5, [r0, #2076]	; 0x81c
 80018d6:	f500 6200 	add.w	r2, r0, #2048	; 0x800
 80018da:	2b01      	cmp	r3, #1
 80018dc:	d11b      	bne.n	8001916 <USB_ActivateEndpoint+0x4a>
 80018de:	40a3      	lsls	r3, r4
 80018e0:	b29b      	uxth	r3, r3
 80018e2:	432b      	orrs	r3, r5
 80018e4:	f500 6010 	add.w	r0, r0, #2304	; 0x900
 80018e8:	61d3      	str	r3, [r2, #28]
 80018ea:	eb00 1344 	add.w	r3, r0, r4, lsl #5
 80018ee:	681a      	ldr	r2, [r3, #0]
 80018f0:	0412      	lsls	r2, r2, #16
 80018f2:	d40e      	bmi.n	8001912 <USB_ActivateEndpoint+0x46>
 80018f4:	688a      	ldr	r2, [r1, #8]
 80018f6:	78c8      	ldrb	r0, [r1, #3]
 80018f8:	681d      	ldr	r5, [r3, #0]
 80018fa:	f3c2 020a 	ubfx	r2, r2, #0, #11
 80018fe:	f042 5280 	orr.w	r2, r2, #268435456	; 0x10000000
 8001902:	f442 4200 	orr.w	r2, r2, #32768	; 0x8000
 8001906:	ea42 4080 	orr.w	r0, r2, r0, lsl #18
 800190a:	ea40 5084 	orr.w	r0, r0, r4, lsl #22
 800190e:	4328      	orrs	r0, r5
 8001910:	6018      	str	r0, [r3, #0]
 8001912:	2000      	movs	r0, #0
 8001914:	bd30      	pop	{r4, r5, pc}
 8001916:	f44f 3380 	mov.w	r3, #65536	; 0x10000
 800191a:	40a3      	lsls	r3, r4
 800191c:	f500 6030 	add.w	r0, r0, #2816	; 0xb00
 8001920:	432b      	orrs	r3, r5
 8001922:	eb00 1044 	add.w	r0, r0, r4, lsl #5
 8001926:	61d3      	str	r3, [r2, #28]
 8001928:	6803      	ldr	r3, [r0, #0]
 800192a:	041b      	lsls	r3, r3, #16
 800192c:	d4f1      	bmi.n	8001912 <USB_ActivateEndpoint+0x46>
 800192e:	688b      	ldr	r3, [r1, #8]
 8001930:	78c9      	ldrb	r1, [r1, #3]
 8001932:	6802      	ldr	r2, [r0, #0]
 8001934:	f3c3 030a 	ubfx	r3, r3, #0, #11
 8001938:	f043 5380 	orr.w	r3, r3, #268435456	; 0x10000000
 800193c:	f443 4300 	orr.w	r3, r3, #32768	; 0x8000
 8001940:	ea43 4381 	orr.w	r3, r3, r1, lsl #18
 8001944:	4313      	orrs	r3, r2
 8001946:	6003      	str	r3, [r0, #0]
 8001948:	e7e3      	b.n	8001912 <USB_ActivateEndpoint+0x46>

0800194a <USB_DeactivateEndpoint>:
 800194a:	f000 b801 	b.w	8001950 <USB_DeactivateDedicatedEndpoint>
	...

08001950 <USB_DeactivateDedicatedEndpoint>:
 8001950:	b570      	push	{r4, r5, r6, lr}
 8001952:	784b      	ldrb	r3, [r1, #1]
 8001954:	2b01      	cmp	r3, #1
 8001956:	460e      	mov	r6, r1
 8001958:	4605      	mov	r5, r0
 800195a:	7809      	ldrb	r1, [r1, #0]
 800195c:	f04f 0320 	mov.w	r3, #32
 8001960:	d126      	bne.n	80019b0 <USB_DeactivateDedicatedEndpoint+0x60>
 8001962:	f500 6210 	add.w	r2, r0, #2304	; 0x900
 8001966:	fb13 2301 	smlabb	r3, r3, r1, r2
 800196a:	681a      	ldr	r2, [r3, #0]
 800196c:	f422 4200 	bic.w	r2, r2, #32768	; 0x8000
 8001970:	601a      	str	r2, [r3, #0]
 8001972:	f04f 6200 	mov.w	r2, #134217728	; 0x8000000
 8001976:	601a      	str	r2, [r3, #0]
 8001978:	f04f 4280 	mov.w	r2, #1073741824	; 0x40000000
 800197c:	601a      	str	r2, [r3, #0]
 800197e:	4a1f      	ldr	r2, [pc, #124]	; (80019fc <USB_DeactivateDedicatedEndpoint+0xac>)
 8001980:	3a01      	subs	r2, #1
 8001982:	d101      	bne.n	8001988 <USB_DeactivateDedicatedEndpoint+0x38>
 8001984:	2003      	movs	r0, #3
 8001986:	bd70      	pop	{r4, r5, r6, pc}
 8001988:	689c      	ldr	r4, [r3, #8]
 800198a:	f014 4480 	ands.w	r4, r4, #1073741824	; 0x40000000
 800198e:	d1f7      	bne.n	8001980 <USB_DeactivateDedicatedEndpoint+0x30>
 8001990:	2110      	movs	r1, #16
 8001992:	4628      	mov	r0, r5
 8001994:	f7ff ff56 	bl	8001844 <USB_FlushTxFifo>
 8001998:	7831      	ldrb	r1, [r6, #0]
 800199a:	f8d5 281c 	ldr.w	r2, [r5, #2076]	; 0x81c
 800199e:	2301      	movs	r3, #1
 80019a0:	408b      	lsls	r3, r1
 80019a2:	b29b      	uxth	r3, r3
 80019a4:	ea22 0303 	bic.w	r3, r2, r3
 80019a8:	f8c5 381c 	str.w	r3, [r5, #2076]	; 0x81c
 80019ac:	4620      	mov	r0, r4
 80019ae:	bd70      	pop	{r4, r5, r6, pc}
 80019b0:	f500 6230 	add.w	r2, r0, #2816	; 0xb00
 80019b4:	fb13 2301 	smlabb	r3, r3, r1, r2
 80019b8:	681a      	ldr	r2, [r3, #0]
 80019ba:	f422 4200 	bic.w	r2, r2, #32768	; 0x8000
 80019be:	601a      	str	r2, [r3, #0]
 80019c0:	f04f 6200 	mov.w	r2, #134217728	; 0x8000000
 80019c4:	601a      	str	r2, [r3, #0]
 80019c6:	f04f 4280 	mov.w	r2, #1073741824	; 0x40000000
 80019ca:	601a      	str	r2, [r3, #0]
 80019cc:	4a0b      	ldr	r2, [pc, #44]	; (80019fc <USB_DeactivateDedicatedEndpoint+0xac>)
 80019ce:	3a01      	subs	r2, #1
 80019d0:	d0d8      	beq.n	8001984 <USB_DeactivateDedicatedEndpoint+0x34>
 80019d2:	6898      	ldr	r0, [r3, #8]
 80019d4:	f010 0010 	ands.w	r0, r0, #16
 80019d8:	d1f9      	bne.n	80019ce <USB_DeactivateDedicatedEndpoint+0x7e>
 80019da:	f8d5 3804 	ldr.w	r3, [r5, #2052]	; 0x804
 80019de:	f443 6380 	orr.w	r3, r3, #1024	; 0x400
 80019e2:	f8c5 3804 	str.w	r3, [r5, #2052]	; 0x804
 80019e6:	f8d5 381c 	ldr.w	r3, [r5, #2076]	; 0x81c
 80019ea:	f44f 3280 	mov.w	r2, #65536	; 0x10000
 80019ee:	408a      	lsls	r2, r1
 80019f0:	ea23 0302 	bic.w	r3, r3, r2
 80019f4:	f8c5 381c 	str.w	r3, [r5, #2076]	; 0x81c
 80019f8:	bd70      	pop	{r4, r5, r6, pc}
 80019fa:	bf00      	nop
 80019fc:	00030d41 	.word	0x00030d41

08001a00 <USB_EPStartXfer>:
 8001a00:	b5f7      	push	{r0, r1, r2, r4, r5, r6, r7, lr}
 8001a02:	784b      	ldrb	r3, [r1, #1]
 8001a04:	780c      	ldrb	r4, [r1, #0]
 8001a06:	2b01      	cmp	r3, #1
 8001a08:	694b      	ldr	r3, [r1, #20]
 8001a0a:	d177      	bne.n	8001afc <USB_EPStartXfer+0xfc>
 8001a0c:	2620      	movs	r6, #32
 8001a0e:	f500 6510 	add.w	r5, r0, #2304	; 0x900
 8001a12:	fb16 5404 	smlabb	r4, r6, r4, r5
 8001a16:	6926      	ldr	r6, [r4, #16]
 8001a18:	2b00      	cmp	r3, #0
 8001a1a:	d138      	bne.n	8001a8e <USB_EPStartXfer+0x8e>
 8001a1c:	f026 56ff 	bic.w	r6, r6, #534773760	; 0x1fe00000
 8001a20:	f426 16c0 	bic.w	r6, r6, #1572864	; 0x180000
 8001a24:	6126      	str	r6, [r4, #16]
 8001a26:	6926      	ldr	r6, [r4, #16]
 8001a28:	f446 2600 	orr.w	r6, r6, #524288	; 0x80000
 8001a2c:	6126      	str	r6, [r4, #16]
 8001a2e:	6926      	ldr	r6, [r4, #16]
 8001a30:	0cf6      	lsrs	r6, r6, #19
 8001a32:	04f6      	lsls	r6, r6, #19
 8001a34:	6126      	str	r6, [r4, #16]
 8001a36:	2a01      	cmp	r2, #1
 8001a38:	d150      	bne.n	8001adc <USB_EPStartXfer+0xdc>
 8001a3a:	780c      	ldrb	r4, [r1, #0]
 8001a3c:	690e      	ldr	r6, [r1, #16]
 8001a3e:	eb05 1444 	add.w	r4, r5, r4, lsl #5
 8001a42:	6166      	str	r6, [r4, #20]
 8001a44:	78ce      	ldrb	r6, [r1, #3]
 8001a46:	2e01      	cmp	r6, #1
 8001a48:	d10f      	bne.n	8001a6a <USB_EPStartXfer+0x6a>
 8001a4a:	f8d0 4808 	ldr.w	r4, [r0, #2056]	; 0x808
 8001a4e:	780f      	ldrb	r7, [r1, #0]
 8001a50:	f414 7f80 	tst.w	r4, #256	; 0x100
 8001a54:	f04f 0420 	mov.w	r4, #32
 8001a58:	fb14 5407 	smlabb	r4, r4, r7, r5
 8001a5c:	6827      	ldr	r7, [r4, #0]
 8001a5e:	bf0c      	ite	eq
 8001a60:	f047 5700 	orreq.w	r7, r7, #536870912	; 0x20000000
 8001a64:	f047 5780 	orrne.w	r7, r7, #268435456	; 0x10000000
 8001a68:	6027      	str	r7, [r4, #0]
 8001a6a:	780f      	ldrb	r7, [r1, #0]
 8001a6c:	eb05 1547 	add.w	r5, r5, r7, lsl #5
 8001a70:	2e01      	cmp	r6, #1
 8001a72:	682c      	ldr	r4, [r5, #0]
 8001a74:	f044 4404 	orr.w	r4, r4, #2214592512	; 0x84000000
 8001a78:	602c      	str	r4, [r5, #0]
 8001a7a:	d105      	bne.n	8001a88 <USB_EPStartXfer+0x88>
 8001a7c:	9200      	str	r2, [sp, #0]
 8001a7e:	b29b      	uxth	r3, r3
 8001a80:	463a      	mov	r2, r7
 8001a82:	68c9      	ldr	r1, [r1, #12]
 8001a84:	f000 f8ef 	bl	8001c66 <USB_WritePacket>
 8001a88:	2000      	movs	r0, #0
 8001a8a:	b003      	add	sp, #12
 8001a8c:	bdf0      	pop	{r4, r5, r6, r7, pc}
 8001a8e:	0cf6      	lsrs	r6, r6, #19
 8001a90:	04f6      	lsls	r6, r6, #19
 8001a92:	6126      	str	r6, [r4, #16]
 8001a94:	6926      	ldr	r6, [r4, #16]
 8001a96:	688f      	ldr	r7, [r1, #8]
 8001a98:	f026 56ff 	bic.w	r6, r6, #534773760	; 0x1fe00000
 8001a9c:	f426 16c0 	bic.w	r6, r6, #1572864	; 0x180000
 8001aa0:	6126      	str	r6, [r4, #16]
 8001aa2:	19de      	adds	r6, r3, r7
 8001aa4:	3e01      	subs	r6, #1
 8001aa6:	fbb6 f7f7 	udiv	r7, r6, r7
 8001aaa:	4e37      	ldr	r6, [pc, #220]	; (8001b88 <USB_EPStartXfer+0x188>)
 8001aac:	f8d4 e010 	ldr.w	lr, [r4, #16]
 8001ab0:	ea06 46c7 	and.w	r6, r6, r7, lsl #19
 8001ab4:	ea46 060e 	orr.w	r6, r6, lr
 8001ab8:	6126      	str	r6, [r4, #16]
 8001aba:	6927      	ldr	r7, [r4, #16]
 8001abc:	f3c3 0612 	ubfx	r6, r3, #0, #19
 8001ac0:	433e      	orrs	r6, r7
 8001ac2:	6126      	str	r6, [r4, #16]
 8001ac4:	78ce      	ldrb	r6, [r1, #3]
 8001ac6:	2e01      	cmp	r6, #1
 8001ac8:	d15a      	bne.n	8001b80 <USB_EPStartXfer+0x180>
 8001aca:	6926      	ldr	r6, [r4, #16]
 8001acc:	f026 46c0 	bic.w	r6, r6, #1610612736	; 0x60000000
 8001ad0:	6126      	str	r6, [r4, #16]
 8001ad2:	6926      	ldr	r6, [r4, #16]
 8001ad4:	f046 5600 	orr.w	r6, r6, #536870912	; 0x20000000
 8001ad8:	6126      	str	r6, [r4, #16]
 8001ada:	e7ac      	b.n	8001a36 <USB_EPStartXfer+0x36>
 8001adc:	78ce      	ldrb	r6, [r1, #3]
 8001ade:	2e01      	cmp	r6, #1
 8001ae0:	d0b3      	beq.n	8001a4a <USB_EPStartXfer+0x4a>
 8001ae2:	2b00      	cmp	r3, #0
 8001ae4:	d0ae      	beq.n	8001a44 <USB_EPStartXfer+0x44>
 8001ae6:	f891 e000 	ldrb.w	lr, [r1]
 8001aea:	f8d0 7834 	ldr.w	r7, [r0, #2100]	; 0x834
 8001aee:	2401      	movs	r4, #1
 8001af0:	fa04 f40e 	lsl.w	r4, r4, lr
 8001af4:	433c      	orrs	r4, r7
 8001af6:	f8c0 4834 	str.w	r4, [r0, #2100]	; 0x834
 8001afa:	e7a3      	b.n	8001a44 <USB_EPStartXfer+0x44>
 8001afc:	f500 6530 	add.w	r5, r0, #2816	; 0xb00
 8001b00:	eb05 1444 	add.w	r4, r5, r4, lsl #5
 8001b04:	6925      	ldr	r5, [r4, #16]
 8001b06:	0ced      	lsrs	r5, r5, #19
 8001b08:	04ed      	lsls	r5, r5, #19
 8001b0a:	6125      	str	r5, [r4, #16]
 8001b0c:	6925      	ldr	r5, [r4, #16]
 8001b0e:	f025 55ff 	bic.w	r5, r5, #534773760	; 0x1fe00000
 8001b12:	f425 15c0 	bic.w	r5, r5, #1572864	; 0x180000
 8001b16:	6125      	str	r5, [r4, #16]
 8001b18:	688d      	ldr	r5, [r1, #8]
 8001b1a:	b9fb      	cbnz	r3, 8001b5c <USB_EPStartXfer+0x15c>
 8001b1c:	6923      	ldr	r3, [r4, #16]
 8001b1e:	f3c5 0512 	ubfx	r5, r5, #0, #19
 8001b22:	431d      	orrs	r5, r3
 8001b24:	6125      	str	r5, [r4, #16]
 8001b26:	6923      	ldr	r3, [r4, #16]
 8001b28:	f443 2300 	orr.w	r3, r3, #524288	; 0x80000
 8001b2c:	6123      	str	r3, [r4, #16]
 8001b2e:	2a01      	cmp	r2, #1
 8001b30:	bf04      	itt	eq
 8001b32:	68cb      	ldreq	r3, [r1, #12]
 8001b34:	6163      	streq	r3, [r4, #20]
 8001b36:	78cb      	ldrb	r3, [r1, #3]
 8001b38:	2b01      	cmp	r3, #1
 8001b3a:	d10a      	bne.n	8001b52 <USB_EPStartXfer+0x152>
 8001b3c:	f8d0 3808 	ldr.w	r3, [r0, #2056]	; 0x808
 8001b40:	f413 7f80 	tst.w	r3, #256	; 0x100
 8001b44:	6823      	ldr	r3, [r4, #0]
 8001b46:	bf0c      	ite	eq
 8001b48:	f043 5300 	orreq.w	r3, r3, #536870912	; 0x20000000
 8001b4c:	f043 5380 	orrne.w	r3, r3, #268435456	; 0x10000000
 8001b50:	6023      	str	r3, [r4, #0]
 8001b52:	6823      	ldr	r3, [r4, #0]
 8001b54:	f043 4304 	orr.w	r3, r3, #2214592512	; 0x84000000
 8001b58:	6023      	str	r3, [r4, #0]
 8001b5a:	e795      	b.n	8001a88 <USB_EPStartXfer+0x88>
 8001b5c:	4e0a      	ldr	r6, [pc, #40]	; (8001b88 <USB_EPStartXfer+0x188>)
 8001b5e:	6927      	ldr	r7, [r4, #16]
 8001b60:	442b      	add	r3, r5
 8001b62:	3b01      	subs	r3, #1
 8001b64:	fbb3 f3f5 	udiv	r3, r3, r5
 8001b68:	ea06 46c3 	and.w	r6, r6, r3, lsl #19
 8001b6c:	433e      	orrs	r6, r7
 8001b6e:	6126      	str	r6, [r4, #16]
 8001b70:	b29b      	uxth	r3, r3
 8001b72:	6926      	ldr	r6, [r4, #16]
 8001b74:	435d      	muls	r5, r3
 8001b76:	f3c5 0512 	ubfx	r5, r5, #0, #19
 8001b7a:	4335      	orrs	r5, r6
 8001b7c:	6125      	str	r5, [r4, #16]
 8001b7e:	e7d6      	b.n	8001b2e <USB_EPStartXfer+0x12e>
 8001b80:	2a01      	cmp	r2, #1
 8001b82:	d1ae      	bne.n	8001ae2 <USB_EPStartXfer+0xe2>
 8001b84:	e759      	b.n	8001a3a <USB_EPStartXfer+0x3a>
 8001b86:	bf00      	nop
 8001b88:	1ff80000 	.word	0x1ff80000

08001b8c <USB_EP0StartXfer>:
 8001b8c:	784b      	ldrb	r3, [r1, #1]
 8001b8e:	2b01      	cmp	r3, #1
 8001b90:	b570      	push	{r4, r5, r6, lr}
 8001b92:	780b      	ldrb	r3, [r1, #0]
 8001b94:	694d      	ldr	r5, [r1, #20]
 8001b96:	d143      	bne.n	8001c20 <USB_EP0StartXfer+0x94>
 8001b98:	2420      	movs	r4, #32
 8001b9a:	f500 6610 	add.w	r6, r0, #2304	; 0x900
 8001b9e:	fb14 6303 	smlabb	r3, r4, r3, r6
 8001ba2:	691c      	ldr	r4, [r3, #16]
 8001ba4:	b9cd      	cbnz	r5, 8001bda <USB_EP0StartXfer+0x4e>
 8001ba6:	f024 54ff 	bic.w	r4, r4, #534773760	; 0x1fe00000
 8001baa:	f424 14c0 	bic.w	r4, r4, #1572864	; 0x180000
 8001bae:	611c      	str	r4, [r3, #16]
 8001bb0:	691c      	ldr	r4, [r3, #16]
 8001bb2:	f444 2400 	orr.w	r4, r4, #524288	; 0x80000
 8001bb6:	611c      	str	r4, [r3, #16]
 8001bb8:	691c      	ldr	r4, [r3, #16]
 8001bba:	0ce4      	lsrs	r4, r4, #19
 8001bbc:	04e4      	lsls	r4, r4, #19
 8001bbe:	611c      	str	r4, [r3, #16]
 8001bc0:	780d      	ldrb	r5, [r1, #0]
 8001bc2:	eb06 1345 	add.w	r3, r6, r5, lsl #5
 8001bc6:	2a01      	cmp	r2, #1
 8001bc8:	681c      	ldr	r4, [r3, #0]
 8001bca:	f044 4404 	orr.w	r4, r4, #2214592512	; 0x84000000
 8001bce:	601c      	str	r4, [r3, #0]
 8001bd0:	d11b      	bne.n	8001c0a <USB_EP0StartXfer+0x7e>
 8001bd2:	690a      	ldr	r2, [r1, #16]
 8001bd4:	615a      	str	r2, [r3, #20]
 8001bd6:	2000      	movs	r0, #0
 8001bd8:	bd70      	pop	{r4, r5, r6, pc}
 8001bda:	0ce4      	lsrs	r4, r4, #19
 8001bdc:	04e4      	lsls	r4, r4, #19
 8001bde:	611c      	str	r4, [r3, #16]
 8001be0:	691c      	ldr	r4, [r3, #16]
 8001be2:	f024 54ff 	bic.w	r4, r4, #534773760	; 0x1fe00000
 8001be6:	f424 14c0 	bic.w	r4, r4, #1572864	; 0x180000
 8001bea:	611c      	str	r4, [r3, #16]
 8001bec:	688c      	ldr	r4, [r1, #8]
 8001bee:	42a5      	cmp	r5, r4
 8001bf0:	bf88      	it	hi
 8001bf2:	614c      	strhi	r4, [r1, #20]
 8001bf4:	691c      	ldr	r4, [r3, #16]
 8001bf6:	f444 2400 	orr.w	r4, r4, #524288	; 0x80000
 8001bfa:	611c      	str	r4, [r3, #16]
 8001bfc:	694c      	ldr	r4, [r1, #20]
 8001bfe:	691d      	ldr	r5, [r3, #16]
 8001c00:	f3c4 0412 	ubfx	r4, r4, #0, #19
 8001c04:	432c      	orrs	r4, r5
 8001c06:	611c      	str	r4, [r3, #16]
 8001c08:	e7da      	b.n	8001bc0 <USB_EP0StartXfer+0x34>
 8001c0a:	694b      	ldr	r3, [r1, #20]
 8001c0c:	2b00      	cmp	r3, #0
 8001c0e:	d0e2      	beq.n	8001bd6 <USB_EP0StartXfer+0x4a>
 8001c10:	f8d0 2834 	ldr.w	r2, [r0, #2100]	; 0x834
 8001c14:	2301      	movs	r3, #1
 8001c16:	40ab      	lsls	r3, r5
 8001c18:	4313      	orrs	r3, r2
 8001c1a:	f8c0 3834 	str.w	r3, [r0, #2100]	; 0x834
 8001c1e:	e7da      	b.n	8001bd6 <USB_EP0StartXfer+0x4a>
 8001c20:	f500 6030 	add.w	r0, r0, #2816	; 0xb00
 8001c24:	eb00 1043 	add.w	r0, r0, r3, lsl #5
 8001c28:	6903      	ldr	r3, [r0, #16]
 8001c2a:	0cdb      	lsrs	r3, r3, #19
 8001c2c:	04db      	lsls	r3, r3, #19
 8001c2e:	6103      	str	r3, [r0, #16]
 8001c30:	6903      	ldr	r3, [r0, #16]
 8001c32:	f023 53ff 	bic.w	r3, r3, #534773760	; 0x1fe00000
 8001c36:	f423 13c0 	bic.w	r3, r3, #1572864	; 0x180000
 8001c3a:	6103      	str	r3, [r0, #16]
 8001c3c:	688b      	ldr	r3, [r1, #8]
 8001c3e:	b105      	cbz	r5, 8001c42 <USB_EP0StartXfer+0xb6>
 8001c40:	614b      	str	r3, [r1, #20]
 8001c42:	6904      	ldr	r4, [r0, #16]
 8001c44:	f444 2400 	orr.w	r4, r4, #524288	; 0x80000
 8001c48:	6104      	str	r4, [r0, #16]
 8001c4a:	6904      	ldr	r4, [r0, #16]
 8001c4c:	f3c3 0312 	ubfx	r3, r3, #0, #19
 8001c50:	4323      	orrs	r3, r4
 8001c52:	2a01      	cmp	r2, #1
 8001c54:	6103      	str	r3, [r0, #16]
 8001c56:	bf04      	itt	eq
 8001c58:	68cb      	ldreq	r3, [r1, #12]
 8001c5a:	6143      	streq	r3, [r0, #20]
 8001c5c:	6803      	ldr	r3, [r0, #0]
 8001c5e:	f043 4304 	orr.w	r3, r3, #2214592512	; 0x84000000
 8001c62:	6003      	str	r3, [r0, #0]
 8001c64:	e7b7      	b.n	8001bd6 <USB_EP0StartXfer+0x4a>

08001c66 <USB_WritePacket>:
 8001c66:	b510      	push	{r4, lr}
 8001c68:	f89d 4008 	ldrb.w	r4, [sp, #8]
 8001c6c:	b94c      	cbnz	r4, 8001c82 <USB_WritePacket+0x1c>
 8001c6e:	3303      	adds	r3, #3
 8001c70:	f500 5080 	add.w	r0, r0, #4096	; 0x1000
 8001c74:	f023 0303 	bic.w	r3, r3, #3
 8001c78:	eb00 3202 	add.w	r2, r0, r2, lsl #12
 8001c7c:	440b      	add	r3, r1
 8001c7e:	4299      	cmp	r1, r3
 8001c80:	d101      	bne.n	8001c86 <USB_WritePacket+0x20>
 8001c82:	2000      	movs	r0, #0
 8001c84:	bd10      	pop	{r4, pc}
 8001c86:	f851 0b04 	ldr.w	r0, [r1], #4
 8001c8a:	6010      	str	r0, [r2, #0]
 8001c8c:	e7f7      	b.n	8001c7e <USB_WritePacket+0x18>

08001c8e <USB_ReadPacket>:
 8001c8e:	3203      	adds	r2, #3
 8001c90:	f022 0203 	bic.w	r2, r2, #3
 8001c94:	440a      	add	r2, r1
 8001c96:	f500 5080 	add.w	r0, r0, #4096	; 0x1000
 8001c9a:	4291      	cmp	r1, r2
 8001c9c:	d101      	bne.n	8001ca2 <USB_ReadPacket+0x14>
 8001c9e:	4608      	mov	r0, r1
 8001ca0:	4770      	bx	lr
 8001ca2:	6803      	ldr	r3, [r0, #0]
 8001ca4:	f841 3b04 	str.w	r3, [r1], #4
 8001ca8:	e7f7      	b.n	8001c9a <USB_ReadPacket+0xc>

08001caa <USB_EPSetStall>:
 8001caa:	784b      	ldrb	r3, [r1, #1]
 8001cac:	780a      	ldrb	r2, [r1, #0]
 8001cae:	2b01      	cmp	r3, #1
 8001cb0:	f04f 0320 	mov.w	r3, #32
 8001cb4:	d10b      	bne.n	8001cce <USB_EPSetStall+0x24>
 8001cb6:	f500 6010 	add.w	r0, r0, #2304	; 0x900
 8001cba:	fb13 0002 	smlabb	r0, r3, r2, r0
 8001cbe:	6803      	ldr	r3, [r0, #0]
 8001cc0:	2b00      	cmp	r3, #0
 8001cc2:	db0b      	blt.n	8001cdc <USB_EPSetStall+0x32>
 8001cc4:	6803      	ldr	r3, [r0, #0]
 8001cc6:	f023 4380 	bic.w	r3, r3, #1073741824	; 0x40000000
 8001cca:	6003      	str	r3, [r0, #0]
 8001ccc:	e006      	b.n	8001cdc <USB_EPSetStall+0x32>
 8001cce:	f500 6030 	add.w	r0, r0, #2816	; 0xb00
 8001cd2:	fb13 0002 	smlabb	r0, r3, r2, r0
 8001cd6:	6803      	ldr	r3, [r0, #0]
 8001cd8:	2b00      	cmp	r3, #0
 8001cda:	daf3      	bge.n	8001cc4 <USB_EPSetStall+0x1a>
 8001cdc:	6803      	ldr	r3, [r0, #0]
 8001cde:	f443 1300 	orr.w	r3, r3, #2097152	; 0x200000
 8001ce2:	6003      	str	r3, [r0, #0]
 8001ce4:	2000      	movs	r0, #0
 8001ce6:	4770      	bx	lr

08001ce8 <USB_EPClearStall>:
 8001ce8:	784b      	ldrb	r3, [r1, #1]
 8001cea:	780a      	ldrb	r2, [r1, #0]
 8001cec:	2b01      	cmp	r3, #1
 8001cee:	bf0c      	ite	eq
 8001cf0:	f500 6010 	addeq.w	r0, r0, #2304	; 0x900
 8001cf4:	f500 6030 	addne.w	r0, r0, #2816	; 0xb00
 8001cf8:	2320      	movs	r3, #32
 8001cfa:	fb13 0002 	smlabb	r0, r3, r2, r0
 8001cfe:	6803      	ldr	r3, [r0, #0]
 8001d00:	f423 1300 	bic.w	r3, r3, #2097152	; 0x200000
 8001d04:	6003      	str	r3, [r0, #0]
 8001d06:	78cb      	ldrb	r3, [r1, #3]
 8001d08:	3b02      	subs	r3, #2
 8001d0a:	2b01      	cmp	r3, #1
 8001d0c:	bf9e      	ittt	ls
 8001d0e:	6803      	ldrls	r3, [r0, #0]
 8001d10:	f043 5380 	orrls.w	r3, r3, #268435456	; 0x10000000
 8001d14:	6003      	strls	r3, [r0, #0]
 8001d16:	2000      	movs	r0, #0
 8001d18:	4770      	bx	lr

08001d1a <USB_SetDevAddress>:
 8001d1a:	f8d0 3800 	ldr.w	r3, [r0, #2048]	; 0x800
 8001d1e:	f423 63fe 	bic.w	r3, r3, #2032	; 0x7f0
 8001d22:	f8c0 3800 	str.w	r3, [r0, #2048]	; 0x800
 8001d26:	f8d0 3800 	ldr.w	r3, [r0, #2048]	; 0x800
 8001d2a:	0109      	lsls	r1, r1, #4
 8001d2c:	f401 61fe 	and.w	r1, r1, #2032	; 0x7f0
 8001d30:	4319      	orrs	r1, r3
 8001d32:	f8c0 1800 	str.w	r1, [r0, #2048]	; 0x800
 8001d36:	2000      	movs	r0, #0
 8001d38:	4770      	bx	lr

08001d3a <USB_DevConnect>:
 8001d3a:	b508      	push	{r3, lr}
 8001d3c:	f8d0 3804 	ldr.w	r3, [r0, #2052]	; 0x804
 8001d40:	f023 0302 	bic.w	r3, r3, #2
 8001d44:	f8c0 3804 	str.w	r3, [r0, #2052]	; 0x804
 8001d48:	2003      	movs	r0, #3
 8001d4a:	f7fe fc69 	bl	8000620 <HAL_Delay>
 8001d4e:	2000      	movs	r0, #0
 8001d50:	bd08      	pop	{r3, pc}

08001d52 <USB_DevDisconnect>:
 8001d52:	b508      	push	{r3, lr}
 8001d54:	f8d0 3804 	ldr.w	r3, [r0, #2052]	; 0x804
 8001d58:	f043 0302 	orr.w	r3, r3, #2
 8001d5c:	f8c0 3804 	str.w	r3, [r0, #2052]	; 0x804
 8001d60:	2003      	movs	r0, #3
 8001d62:	f7fe fc5d 	bl	8000620 <HAL_Delay>
 8001d66:	2000      	movs	r0, #0
 8001d68:	bd08      	pop	{r3, pc}

08001d6a <USB_ReadInterrupts>:
 8001d6a:	6942      	ldr	r2, [r0, #20]
 8001d6c:	6980      	ldr	r0, [r0, #24]
 8001d6e:	4010      	ands	r0, r2
 8001d70:	4770      	bx	lr

08001d72 <USB_ReadDevAllOutEpInterrupt>:
 8001d72:	f8d0 3818 	ldr.w	r3, [r0, #2072]	; 0x818
 8001d76:	f500 6000 	add.w	r0, r0, #2048	; 0x800
 8001d7a:	69c0      	ldr	r0, [r0, #28]
 8001d7c:	4018      	ands	r0, r3
 8001d7e:	0c00      	lsrs	r0, r0, #16
 8001d80:	4770      	bx	lr

08001d82 <USB_ReadDevAllInEpInterrupt>:
 8001d82:	f8d0 3818 	ldr.w	r3, [r0, #2072]	; 0x818
 8001d86:	f500 6000 	add.w	r0, r0, #2048	; 0x800
 8001d8a:	69c0      	ldr	r0, [r0, #28]
 8001d8c:	4018      	ands	r0, r3
 8001d8e:	b280      	uxth	r0, r0
 8001d90:	4770      	bx	lr

08001d92 <USB_ReadDevOutEPInterrupt>:
 8001d92:	f500 6330 	add.w	r3, r0, #2816	; 0xb00
 8001d96:	eb03 1141 	add.w	r1, r3, r1, lsl #5
 8001d9a:	f500 6000 	add.w	r0, r0, #2048	; 0x800
 8001d9e:	688a      	ldr	r2, [r1, #8]
 8001da0:	6940      	ldr	r0, [r0, #20]
 8001da2:	4010      	ands	r0, r2
 8001da4:	4770      	bx	lr

08001da6 <USB_ReadDevInEPInterrupt>:
 8001da6:	b510      	push	{r4, lr}
 8001da8:	f8d0 4810 	ldr.w	r4, [r0, #2064]	; 0x810
 8001dac:	f8d0 3834 	ldr.w	r3, [r0, #2100]	; 0x834
 8001db0:	eb00 1041 	add.w	r0, r0, r1, lsl #5
 8001db4:	40cb      	lsrs	r3, r1
 8001db6:	f500 6010 	add.w	r0, r0, #2304	; 0x900
 8001dba:	01db      	lsls	r3, r3, #7
 8001dbc:	6880      	ldr	r0, [r0, #8]
 8001dbe:	b2db      	uxtb	r3, r3
 8001dc0:	4323      	orrs	r3, r4
 8001dc2:	4018      	ands	r0, r3
 8001dc4:	bd10      	pop	{r4, pc}

08001dc6 <USB_GetMode>:
 8001dc6:	6940      	ldr	r0, [r0, #20]
 8001dc8:	f000 0001 	and.w	r0, r0, #1
 8001dcc:	4770      	bx	lr

08001dce <USB_ActivateSetup>:
 8001dce:	f8d0 3900 	ldr.w	r3, [r0, #2304]	; 0x900
 8001dd2:	f423 63ff 	bic.w	r3, r3, #2040	; 0x7f8
 8001dd6:	f023 0307 	bic.w	r3, r3, #7
 8001dda:	f8c0 3900 	str.w	r3, [r0, #2304]	; 0x900
 8001dde:	f500 6300 	add.w	r3, r0, #2048	; 0x800
 8001de2:	689a      	ldr	r2, [r3, #8]
 8001de4:	f002 0206 	and.w	r2, r2, #6
 8001de8:	2a04      	cmp	r2, #4
 8001dea:	bf02      	ittt	eq
 8001dec:	f8d0 2900 	ldreq.w	r2, [r0, #2304]	; 0x900
 8001df0:	f042 0203 	orreq.w	r2, r2, #3
 8001df4:	f8c0 2900 	streq.w	r2, [r0, #2304]	; 0x900
 8001df8:	685a      	ldr	r2, [r3, #4]
 8001dfa:	f442 7280 	orr.w	r2, r2, #256	; 0x100
 8001dfe:	605a      	str	r2, [r3, #4]
 8001e00:	2000      	movs	r0, #0
 8001e02:	4770      	bx	lr

08001e04 <USB_EP0_OutStart>:
 8001e04:	b510      	push	{r4, lr}
 8001e06:	2400      	movs	r4, #0
 8001e08:	f8c0 4b10 	str.w	r4, [r0, #2832]	; 0xb10
 8001e0c:	f8d0 4b10 	ldr.w	r4, [r0, #2832]	; 0xb10
 8001e10:	f444 2400 	orr.w	r4, r4, #524288	; 0x80000
 8001e14:	f8c0 4b10 	str.w	r4, [r0, #2832]	; 0xb10
 8001e18:	f8d0 4b10 	ldr.w	r4, [r0, #2832]	; 0xb10
 8001e1c:	f044 0418 	orr.w	r4, r4, #24
 8001e20:	f8c0 4b10 	str.w	r4, [r0, #2832]	; 0xb10
 8001e24:	f8d0 4b10 	ldr.w	r4, [r0, #2832]	; 0xb10
 8001e28:	2901      	cmp	r1, #1
 8001e2a:	f500 6330 	add.w	r3, r0, #2816	; 0xb00
 8001e2e:	f044 44c0 	orr.w	r4, r4, #1610612736	; 0x60000000
 8001e32:	bf08      	it	eq
 8001e34:	f04f 2380 	moveq.w	r3, #2147516416	; 0x80008000
 8001e38:	f8c0 4b10 	str.w	r4, [r0, #2832]	; 0xb10
 8001e3c:	bf04      	itt	eq
 8001e3e:	f8c0 2b14 	streq.w	r2, [r0, #2836]	; 0xb14
 8001e42:	f8c0 3b00 	streq.w	r3, [r0, #2816]	; 0xb00
 8001e46:	2000      	movs	r0, #0
 8001e48:	bd10      	pop	{r4, pc}
	...

08001e4c <USB_CoreReset>:
 8001e4c:	4b0a      	ldr	r3, [pc, #40]	; (8001e78 <USB_CoreReset+0x2c>)
 8001e4e:	3b01      	subs	r3, #1
 8001e50:	d101      	bne.n	8001e56 <USB_CoreReset+0xa>
 8001e52:	2003      	movs	r0, #3
 8001e54:	4770      	bx	lr
 8001e56:	6902      	ldr	r2, [r0, #16]
 8001e58:	2a00      	cmp	r2, #0
 8001e5a:	daf8      	bge.n	8001e4e <USB_CoreReset+0x2>
 8001e5c:	6903      	ldr	r3, [r0, #16]
 8001e5e:	4a06      	ldr	r2, [pc, #24]	; (8001e78 <USB_CoreReset+0x2c>)
 8001e60:	f043 0301 	orr.w	r3, r3, #1
 8001e64:	6103      	str	r3, [r0, #16]
 8001e66:	3a01      	subs	r2, #1
 8001e68:	d0f3      	beq.n	8001e52 <USB_CoreReset+0x6>
 8001e6a:	6903      	ldr	r3, [r0, #16]
 8001e6c:	f013 0301 	ands.w	r3, r3, #1
 8001e70:	d1f9      	bne.n	8001e66 <USB_CoreReset+0x1a>
 8001e72:	4618      	mov	r0, r3
 8001e74:	4770      	bx	lr
 8001e76:	bf00      	nop
 8001e78:	00030d41 	.word	0x00030d41

08001e7c <USBD_CDC_DataIn>:
 8001e7c:	f8d0 3218 	ldr.w	r3, [r0, #536]	; 0x218
 8001e80:	b11b      	cbz	r3, 8001e8a <USBD_CDC_DataIn+0xe>
 8001e82:	2000      	movs	r0, #0
 8001e84:	f8c3 0214 	str.w	r0, [r3, #532]	; 0x214
 8001e88:	4770      	bx	lr
 8001e8a:	2002      	movs	r0, #2
 8001e8c:	4770      	bx	lr

08001e8e <USBD_CDC_EP0_RxReady>:
 8001e8e:	f8d0 321c 	ldr.w	r3, [r0, #540]	; 0x21c
 8001e92:	b510      	push	{r4, lr}
 8001e94:	f8d0 4218 	ldr.w	r4, [r0, #536]	; 0x218
 8001e98:	b15b      	cbz	r3, 8001eb2 <USBD_CDC_EP0_RxReady+0x24>
 8001e9a:	f894 0200 	ldrb.w	r0, [r4, #512]	; 0x200
 8001e9e:	28ff      	cmp	r0, #255	; 0xff
 8001ea0:	d007      	beq.n	8001eb2 <USBD_CDC_EP0_RxReady+0x24>
 8001ea2:	689b      	ldr	r3, [r3, #8]
 8001ea4:	f894 2201 	ldrb.w	r2, [r4, #513]	; 0x201
 8001ea8:	4621      	mov	r1, r4
 8001eaa:	4798      	blx	r3
 8001eac:	23ff      	movs	r3, #255	; 0xff
 8001eae:	f884 3200 	strb.w	r3, [r4, #512]	; 0x200
 8001eb2:	2000      	movs	r0, #0
 8001eb4:	bd10      	pop	{r4, pc}
	...

08001eb8 <USBD_CDC_GetFSCfgDesc>:
 8001eb8:	2343      	movs	r3, #67	; 0x43
 8001eba:	8003      	strh	r3, [r0, #0]
 8001ebc:	4800      	ldr	r0, [pc, #0]	; (8001ec0 <USBD_CDC_GetFSCfgDesc+0x8>)
 8001ebe:	4770      	bx	lr
 8001ec0:	20000040 	.word	0x20000040

08001ec4 <USBD_CDC_GetHSCfgDesc>:
 8001ec4:	2343      	movs	r3, #67	; 0x43
 8001ec6:	8003      	strh	r3, [r0, #0]
 8001ec8:	4800      	ldr	r0, [pc, #0]	; (8001ecc <USBD_CDC_GetHSCfgDesc+0x8>)
 8001eca:	4770      	bx	lr
 8001ecc:	20000084 	.word	0x20000084

08001ed0 <USBD_CDC_GetOtherSpeedCfgDesc>:
 8001ed0:	2343      	movs	r3, #67	; 0x43
 8001ed2:	8003      	strh	r3, [r0, #0]
 8001ed4:	4800      	ldr	r0, [pc, #0]	; (8001ed8 <USBD_CDC_GetOtherSpeedCfgDesc+0x8>)
 8001ed6:	4770      	bx	lr
 8001ed8:	200000d4 	.word	0x200000d4

08001edc <USBD_CDC_GetDeviceQualifierDescriptor>:
 8001edc:	230a      	movs	r3, #10
 8001ede:	8003      	strh	r3, [r0, #0]
 8001ee0:	4800      	ldr	r0, [pc, #0]	; (8001ee4 <USBD_CDC_GetDeviceQualifierDescriptor+0x8>)
 8001ee2:	4770      	bx	lr
 8001ee4:	200000c8 	.word	0x200000c8

08001ee8 <USBD_CDC_DataOut>:
 8001ee8:	b538      	push	{r3, r4, r5, lr}
 8001eea:	4605      	mov	r5, r0
 8001eec:	f8d0 4218 	ldr.w	r4, [r0, #536]	; 0x218
 8001ef0:	f000 fef8 	bl	8002ce4 <USBD_LL_GetRxDataSize>
 8001ef4:	f8d5 3218 	ldr.w	r3, [r5, #536]	; 0x218
 8001ef8:	f8c4 020c 	str.w	r0, [r4, #524]	; 0x20c
 8001efc:	b14b      	cbz	r3, 8001f12 <USBD_CDC_DataOut+0x2a>
 8001efe:	f8d5 321c 	ldr.w	r3, [r5, #540]	; 0x21c
 8001f02:	f8d4 0204 	ldr.w	r0, [r4, #516]	; 0x204
 8001f06:	68db      	ldr	r3, [r3, #12]
 8001f08:	f504 7103 	add.w	r1, r4, #524	; 0x20c
 8001f0c:	4798      	blx	r3
 8001f0e:	2000      	movs	r0, #0
 8001f10:	bd38      	pop	{r3, r4, r5, pc}
 8001f12:	2002      	movs	r0, #2
 8001f14:	bd38      	pop	{r3, r4, r5, pc}
	...

08001f18 <USBD_CDC_Setup>:
 8001f18:	b5f8      	push	{r3, r4, r5, r6, r7, lr}
 8001f1a:	780f      	ldrb	r7, [r1, #0]
 8001f1c:	f017 0360 	ands.w	r3, r7, #96	; 0x60
 8001f20:	4606      	mov	r6, r0
 8001f22:	460c      	mov	r4, r1
 8001f24:	d023      	beq.n	8001f6e <USBD_CDC_Setup+0x56>
 8001f26:	2b20      	cmp	r3, #32
 8001f28:	d119      	bne.n	8001f5e <USBD_CDC_Setup+0x46>
 8001f2a:	88ca      	ldrh	r2, [r1, #6]
 8001f2c:	784b      	ldrb	r3, [r1, #1]
 8001f2e:	b1c2      	cbz	r2, 8001f62 <USBD_CDC_Setup+0x4a>
 8001f30:	0639      	lsls	r1, r7, #24
 8001f32:	f8d0 5218 	ldr.w	r5, [r0, #536]	; 0x218
 8001f36:	d50b      	bpl.n	8001f50 <USBD_CDC_Setup+0x38>
 8001f38:	f8d0 121c 	ldr.w	r1, [r0, #540]	; 0x21c
 8001f3c:	4618      	mov	r0, r3
 8001f3e:	688f      	ldr	r7, [r1, #8]
 8001f40:	4629      	mov	r1, r5
 8001f42:	47b8      	blx	r7
 8001f44:	88e2      	ldrh	r2, [r4, #6]
 8001f46:	4629      	mov	r1, r5
 8001f48:	4630      	mov	r0, r6
 8001f4a:	f000 fb9a 	bl	8002682 <USBD_CtlSendData>
 8001f4e:	e006      	b.n	8001f5e <USBD_CDC_Setup+0x46>
 8001f50:	f885 3200 	strb.w	r3, [r5, #512]	; 0x200
 8001f54:	f885 2201 	strb.w	r2, [r5, #513]	; 0x201
 8001f58:	4629      	mov	r1, r5
 8001f5a:	f000 fba7 	bl	80026ac <USBD_CtlPrepareRx>
 8001f5e:	2000      	movs	r0, #0
 8001f60:	bdf8      	pop	{r3, r4, r5, r6, r7, pc}
 8001f62:	f8d0 021c 	ldr.w	r0, [r0, #540]	; 0x21c
 8001f66:	6884      	ldr	r4, [r0, #8]
 8001f68:	4618      	mov	r0, r3
 8001f6a:	47a0      	blx	r4
 8001f6c:	e7f7      	b.n	8001f5e <USBD_CDC_Setup+0x46>
 8001f6e:	784b      	ldrb	r3, [r1, #1]
 8001f70:	2b0a      	cmp	r3, #10
 8001f72:	d1f4      	bne.n	8001f5e <USBD_CDC_Setup+0x46>
 8001f74:	2201      	movs	r2, #1
 8001f76:	4901      	ldr	r1, [pc, #4]	; (8001f7c <USBD_CDC_Setup+0x64>)
 8001f78:	e7e7      	b.n	8001f4a <USBD_CDC_Setup+0x32>
 8001f7a:	bf00      	nop
 8001f7c:	200001e0 	.word	0x200001e0

08001f80 <USBD_CDC_DeInit>:
 8001f80:	b510      	push	{r4, lr}
 8001f82:	2181      	movs	r1, #129	; 0x81
 8001f84:	4604      	mov	r4, r0
 8001f86:	f000 fe45 	bl	8002c14 <USBD_LL_CloseEP>
 8001f8a:	2101      	movs	r1, #1
 8001f8c:	4620      	mov	r0, r4
 8001f8e:	f000 fe41 	bl	8002c14 <USBD_LL_CloseEP>
 8001f92:	2182      	movs	r1, #130	; 0x82
 8001f94:	4620      	mov	r0, r4
 8001f96:	f000 fe3d 	bl	8002c14 <USBD_LL_CloseEP>
 8001f9a:	f8d4 3218 	ldr.w	r3, [r4, #536]	; 0x218
 8001f9e:	b153      	cbz	r3, 8001fb6 <USBD_CDC_DeInit+0x36>
 8001fa0:	f8d4 321c 	ldr.w	r3, [r4, #540]	; 0x21c
 8001fa4:	685b      	ldr	r3, [r3, #4]
 8001fa6:	4798      	blx	r3
 8001fa8:	f8d4 0218 	ldr.w	r0, [r4, #536]	; 0x218
 8001fac:	f000 ff48 	bl	8002e40 <free>
 8001fb0:	2300      	movs	r3, #0
 8001fb2:	f8c4 3218 	str.w	r3, [r4, #536]	; 0x218
 8001fb6:	2000      	movs	r0, #0
 8001fb8:	bd10      	pop	{r4, pc}

08001fba <USBD_CDC_Init>:
 8001fba:	b5f8      	push	{r3, r4, r5, r6, r7, lr}
 8001fbc:	7c03      	ldrb	r3, [r0, #16]
 8001fbe:	4604      	mov	r4, r0
 8001fc0:	bb7b      	cbnz	r3, 8002022 <USBD_CDC_Init+0x68>
 8001fc2:	f44f 7300 	mov.w	r3, #512	; 0x200
 8001fc6:	2202      	movs	r2, #2
 8001fc8:	2181      	movs	r1, #129	; 0x81
 8001fca:	f000 fe13 	bl	8002bf4 <USBD_LL_OpenEP>
 8001fce:	f44f 7300 	mov.w	r3, #512	; 0x200
 8001fd2:	2202      	movs	r2, #2
 8001fd4:	2101      	movs	r1, #1
 8001fd6:	4620      	mov	r0, r4
 8001fd8:	f000 fe0c 	bl	8002bf4 <USBD_LL_OpenEP>
 8001fdc:	2308      	movs	r3, #8
 8001fde:	2203      	movs	r2, #3
 8001fe0:	2182      	movs	r1, #130	; 0x82
 8001fe2:	4620      	mov	r0, r4
 8001fe4:	f000 fe06 	bl	8002bf4 <USBD_LL_OpenEP>
 8001fe8:	f44f 7007 	mov.w	r0, #540	; 0x21c
 8001fec:	f000 ff20 	bl	8002e30 <malloc>
 8001ff0:	4606      	mov	r6, r0
 8001ff2:	f8c4 0218 	str.w	r0, [r4, #536]	; 0x218
 8001ff6:	b320      	cbz	r0, 8002042 <USBD_CDC_Init+0x88>
 8001ff8:	f8d4 321c 	ldr.w	r3, [r4, #540]	; 0x21c
 8001ffc:	681b      	ldr	r3, [r3, #0]
 8001ffe:	4798      	blx	r3
 8002000:	7c27      	ldrb	r7, [r4, #16]
 8002002:	2500      	movs	r5, #0
 8002004:	f8c6 5214 	str.w	r5, [r6, #532]	; 0x214
 8002008:	f8c6 5218 	str.w	r5, [r6, #536]	; 0x218
 800200c:	b987      	cbnz	r7, 8002030 <USBD_CDC_Init+0x76>
 800200e:	f44f 7300 	mov.w	r3, #512	; 0x200
 8002012:	f8d6 2204 	ldr.w	r2, [r6, #516]	; 0x204
 8002016:	2101      	movs	r1, #1
 8002018:	4620      	mov	r0, r4
 800201a:	f000 fe55 	bl	8002cc8 <USBD_LL_PrepareReceive>
 800201e:	4638      	mov	r0, r7
 8002020:	bdf8      	pop	{r3, r4, r5, r6, r7, pc}
 8002022:	2340      	movs	r3, #64	; 0x40
 8002024:	2202      	movs	r2, #2
 8002026:	2181      	movs	r1, #129	; 0x81
 8002028:	f000 fde4 	bl	8002bf4 <USBD_LL_OpenEP>
 800202c:	2340      	movs	r3, #64	; 0x40
 800202e:	e7d0      	b.n	8001fd2 <USBD_CDC_Init+0x18>
 8002030:	2340      	movs	r3, #64	; 0x40
 8002032:	f8d6 2204 	ldr.w	r2, [r6, #516]	; 0x204
 8002036:	2101      	movs	r1, #1
 8002038:	4620      	mov	r0, r4
 800203a:	f000 fe45 	bl	8002cc8 <USBD_LL_PrepareReceive>
 800203e:	4628      	mov	r0, r5
 8002040:	bdf8      	pop	{r3, r4, r5, r6, r7, pc}
 8002042:	2001      	movs	r0, #1
 8002044:	bdf8      	pop	{r3, r4, r5, r6, r7, pc}

08002046 <USBD_CDC_RegisterInterface>:
 8002046:	b119      	cbz	r1, 8002050 <USBD_CDC_RegisterInterface+0xa>
 8002048:	f8c0 121c 	str.w	r1, [r0, #540]	; 0x21c
 800204c:	2000      	movs	r0, #0
 800204e:	4770      	bx	lr
 8002050:	2002      	movs	r0, #2
 8002052:	4770      	bx	lr

08002054 <USBD_CDC_SetTxBuffer>:
 8002054:	f8d0 3218 	ldr.w	r3, [r0, #536]	; 0x218
 8002058:	2000      	movs	r0, #0
 800205a:	f8c3 1208 	str.w	r1, [r3, #520]	; 0x208
 800205e:	f8c3 2210 	str.w	r2, [r3, #528]	; 0x210
 8002062:	4770      	bx	lr

08002064 <USBD_CDC_SetRxBuffer>:
 8002064:	f8d0 3218 	ldr.w	r3, [r0, #536]	; 0x218
 8002068:	2000      	movs	r0, #0
 800206a:	f8c3 1204 	str.w	r1, [r3, #516]	; 0x204
 800206e:	4770      	bx	lr

08002070 <USBD_CDC_TransmitPacket>:
 8002070:	f8d0 2218 	ldr.w	r2, [r0, #536]	; 0x218
 8002074:	b510      	push	{r4, lr}
 8002076:	b172      	cbz	r2, 8002096 <USBD_CDC_TransmitPacket+0x26>
 8002078:	f8d2 4214 	ldr.w	r4, [r2, #532]	; 0x214
 800207c:	2301      	movs	r3, #1
 800207e:	b964      	cbnz	r4, 800209a <USBD_CDC_TransmitPacket+0x2a>
 8002080:	f8c2 3214 	str.w	r3, [r2, #532]	; 0x214
 8002084:	2181      	movs	r1, #129	; 0x81
 8002086:	f8b2 3210 	ldrh.w	r3, [r2, #528]	; 0x210
 800208a:	f8d2 2208 	ldr.w	r2, [r2, #520]	; 0x208
 800208e:	f000 fe0d 	bl	8002cac <USBD_LL_Transmit>
 8002092:	4620      	mov	r0, r4
 8002094:	bd10      	pop	{r4, pc}
 8002096:	2002      	movs	r0, #2
 8002098:	bd10      	pop	{r4, pc}
 800209a:	4618      	mov	r0, r3
 800209c:	bd10      	pop	{r4, pc}

0800209e <USBD_CDC_ReceivePacket>:
 800209e:	f8d0 2218 	ldr.w	r2, [r0, #536]	; 0x218
 80020a2:	b510      	push	{r4, lr}
 80020a4:	b162      	cbz	r2, 80020c0 <USBD_CDC_ReceivePacket+0x22>
 80020a6:	7c04      	ldrb	r4, [r0, #16]
 80020a8:	b944      	cbnz	r4, 80020bc <USBD_CDC_ReceivePacket+0x1e>
 80020aa:	f44f 7300 	mov.w	r3, #512	; 0x200
 80020ae:	f8d2 2204 	ldr.w	r2, [r2, #516]	; 0x204
 80020b2:	2101      	movs	r1, #1
 80020b4:	f000 fe08 	bl	8002cc8 <USBD_LL_PrepareReceive>
 80020b8:	2000      	movs	r0, #0
 80020ba:	bd10      	pop	{r4, pc}
 80020bc:	2340      	movs	r3, #64	; 0x40
 80020be:	e7f6      	b.n	80020ae <USBD_CDC_ReceivePacket+0x10>
 80020c0:	2002      	movs	r0, #2
 80020c2:	bd10      	pop	{r4, pc}

080020c4 <USBD_Init>:
 80020c4:	b508      	push	{r3, lr}
 80020c6:	b180      	cbz	r0, 80020ea <USBD_Init+0x26>
 80020c8:	f8d0 3214 	ldr.w	r3, [r0, #532]	; 0x214
 80020cc:	b113      	cbz	r3, 80020d4 <USBD_Init+0x10>
 80020ce:	2300      	movs	r3, #0
 80020d0:	f8c0 3214 	str.w	r3, [r0, #532]	; 0x214
 80020d4:	b109      	cbz	r1, 80020da <USBD_Init+0x16>
 80020d6:	f8c0 1210 	str.w	r1, [r0, #528]	; 0x210
 80020da:	2301      	movs	r3, #1
 80020dc:	f880 31fc 	strb.w	r3, [r0, #508]	; 0x1fc
 80020e0:	7002      	strb	r2, [r0, #0]
 80020e2:	f000 fd45 	bl	8002b70 <USBD_LL_Init>
 80020e6:	2000      	movs	r0, #0
 80020e8:	bd08      	pop	{r3, pc}
 80020ea:	2002      	movs	r0, #2
 80020ec:	bd08      	pop	{r3, pc}

080020ee <USBD_RegisterClass>:
 80020ee:	b119      	cbz	r1, 80020f8 <USBD_RegisterClass+0xa>
 80020f0:	f8c0 1214 	str.w	r1, [r0, #532]	; 0x214
 80020f4:	2000      	movs	r0, #0
 80020f6:	4770      	bx	lr
 80020f8:	2002      	movs	r0, #2
 80020fa:	4770      	bx	lr

080020fc <USBD_Start>:
 80020fc:	b508      	push	{r3, lr}
 80020fe:	f000 fd6b 	bl	8002bd8 <USBD_LL_Start>
 8002102:	2000      	movs	r0, #0
 8002104:	bd08      	pop	{r3, pc}

08002106 <USBD_SetClassConfig>:
 8002106:	b508      	push	{r3, lr}
 8002108:	f8d0 3214 	ldr.w	r3, [r0, #532]	; 0x214
 800210c:	b90b      	cbnz	r3, 8002112 <USBD_SetClassConfig+0xc>
 800210e:	2002      	movs	r0, #2
 8002110:	bd08      	pop	{r3, pc}
 8002112:	681b      	ldr	r3, [r3, #0]
 8002114:	4798      	blx	r3
 8002116:	2800      	cmp	r0, #0
 8002118:	d1f9      	bne.n	800210e <USBD_SetClassConfig+0x8>
 800211a:	bd08      	pop	{r3, pc}

0800211c <USBD_ClrClassConfig>:
 800211c:	b508      	push	{r3, lr}
 800211e:	f8d0 3214 	ldr.w	r3, [r0, #532]	; 0x214
 8002122:	685b      	ldr	r3, [r3, #4]
 8002124:	4798      	blx	r3
 8002126:	2000      	movs	r0, #0
 8002128:	bd08      	pop	{r3, pc}

0800212a <USBD_LL_SetupStage>:
 800212a:	b538      	push	{r3, r4, r5, lr}
 800212c:	4604      	mov	r4, r0
 800212e:	f500 7502 	add.w	r5, r0, #520	; 0x208
 8002132:	4628      	mov	r0, r5
 8002134:	f000 fa75 	bl	8002622 <USBD_ParseSetupRequest>
 8002138:	2301      	movs	r3, #1
 800213a:	f894 1208 	ldrb.w	r1, [r4, #520]	; 0x208
 800213e:	f8c4 31f4 	str.w	r3, [r4, #500]	; 0x1f4
 8002142:	f8b4 320e 	ldrh.w	r3, [r4, #526]	; 0x20e
 8002146:	f8c4 31f8 	str.w	r3, [r4, #504]	; 0x1f8
 800214a:	f001 031f 	and.w	r3, r1, #31
 800214e:	2b01      	cmp	r3, #1
 8002150:	d00e      	beq.n	8002170 <USBD_LL_SetupStage+0x46>
 8002152:	d307      	bcc.n	8002164 <USBD_LL_SetupStage+0x3a>
 8002154:	2b02      	cmp	r3, #2
 8002156:	d010      	beq.n	800217a <USBD_LL_SetupStage+0x50>
 8002158:	f001 0180 	and.w	r1, r1, #128	; 0x80
 800215c:	4620      	mov	r0, r4
 800215e:	f000 fd67 	bl	8002c30 <USBD_LL_StallEP>
 8002162:	e003      	b.n	800216c <USBD_LL_SetupStage+0x42>
 8002164:	4629      	mov	r1, r5
 8002166:	4620      	mov	r0, r4
 8002168:	f000 f8e6 	bl	8002338 <USBD_StdDevReq>
 800216c:	2000      	movs	r0, #0
 800216e:	bd38      	pop	{r3, r4, r5, pc}
 8002170:	4629      	mov	r1, r5
 8002172:	4620      	mov	r0, r4
 8002174:	f000 f9da 	bl	800252c <USBD_StdItfReq>
 8002178:	e7f8      	b.n	800216c <USBD_LL_SetupStage+0x42>
 800217a:	4629      	mov	r1, r5
 800217c:	4620      	mov	r0, r4
 800217e:	f000 f9ed 	bl	800255c <USBD_StdEPReq>
 8002182:	e7f3      	b.n	800216c <USBD_LL_SetupStage+0x42>

08002184 <USBD_LL_DataOutStage>:
 8002184:	b538      	push	{r3, r4, r5, lr}
 8002186:	4604      	mov	r4, r0
 8002188:	4615      	mov	r5, r2
 800218a:	bb11      	cbnz	r1, 80021d2 <USBD_LL_DataOutStage+0x4e>
 800218c:	f8d0 31f4 	ldr.w	r3, [r0, #500]	; 0x1f4
 8002190:	2b03      	cmp	r3, #3
 8002192:	d10f      	bne.n	80021b4 <USBD_LL_DataOutStage+0x30>
 8002194:	f8d0 310c 	ldr.w	r3, [r0, #268]	; 0x10c
 8002198:	f8d0 2110 	ldr.w	r2, [r0, #272]	; 0x110
 800219c:	4293      	cmp	r3, r2
 800219e:	d90b      	bls.n	80021b8 <USBD_LL_DataOutStage+0x34>
 80021a0:	1a9b      	subs	r3, r3, r2
 80021a2:	429a      	cmp	r2, r3
 80021a4:	bf28      	it	cs
 80021a6:	461a      	movcs	r2, r3
 80021a8:	f8c0 310c 	str.w	r3, [r0, #268]	; 0x10c
 80021ac:	b292      	uxth	r2, r2
 80021ae:	4629      	mov	r1, r5
 80021b0:	f000 fa8b 	bl	80026ca <USBD_CtlContinueRx>
 80021b4:	2000      	movs	r0, #0
 80021b6:	bd38      	pop	{r3, r4, r5, pc}
 80021b8:	f8d0 3214 	ldr.w	r3, [r0, #532]	; 0x214
 80021bc:	691b      	ldr	r3, [r3, #16]
 80021be:	b123      	cbz	r3, 80021ca <USBD_LL_DataOutStage+0x46>
 80021c0:	f890 21fc 	ldrb.w	r2, [r0, #508]	; 0x1fc
 80021c4:	2a03      	cmp	r2, #3
 80021c6:	d100      	bne.n	80021ca <USBD_LL_DataOutStage+0x46>
 80021c8:	4798      	blx	r3
 80021ca:	4620      	mov	r0, r4
 80021cc:	f000 fa85 	bl	80026da <USBD_CtlSendStatus>
 80021d0:	e7f0      	b.n	80021b4 <USBD_LL_DataOutStage+0x30>
 80021d2:	f8d0 3214 	ldr.w	r3, [r0, #532]	; 0x214
 80021d6:	699b      	ldr	r3, [r3, #24]
 80021d8:	2b00      	cmp	r3, #0
 80021da:	d0eb      	beq.n	80021b4 <USBD_LL_DataOutStage+0x30>
 80021dc:	f890 21fc 	ldrb.w	r2, [r0, #508]	; 0x1fc
 80021e0:	2a03      	cmp	r2, #3
 80021e2:	d1e7      	bne.n	80021b4 <USBD_LL_DataOutStage+0x30>
 80021e4:	4798      	blx	r3
 80021e6:	e7e5      	b.n	80021b4 <USBD_LL_DataOutStage+0x30>

080021e8 <USBD_LL_DataInStage>:
 80021e8:	b570      	push	{r4, r5, r6, lr}
 80021ea:	4613      	mov	r3, r2
 80021ec:	4604      	mov	r4, r0
 80021ee:	460e      	mov	r6, r1
 80021f0:	2900      	cmp	r1, #0
 80021f2:	d13d      	bne.n	8002270 <USBD_LL_DataInStage+0x88>
 80021f4:	f8d0 21f4 	ldr.w	r2, [r0, #500]	; 0x1f4
 80021f8:	2a02      	cmp	r2, #2
 80021fa:	d10f      	bne.n	800221c <USBD_LL_DataInStage+0x34>
 80021fc:	69c5      	ldr	r5, [r0, #28]
 80021fe:	6a02      	ldr	r2, [r0, #32]
 8002200:	4295      	cmp	r5, r2
 8002202:	d914      	bls.n	800222e <USBD_LL_DataInStage+0x46>
 8002204:	1aaa      	subs	r2, r5, r2
 8002206:	61c2      	str	r2, [r0, #28]
 8002208:	4619      	mov	r1, r3
 800220a:	b292      	uxth	r2, r2
 800220c:	f000 fa46 	bl	800269c <USBD_CtlContinueSendData>
 8002210:	4633      	mov	r3, r6
 8002212:	461a      	mov	r2, r3
 8002214:	4619      	mov	r1, r3
 8002216:	4620      	mov	r0, r4
 8002218:	f000 fd56 	bl	8002cc8 <USBD_LL_PrepareReceive>
 800221c:	f894 3200 	ldrb.w	r3, [r4, #512]	; 0x200
 8002220:	2b01      	cmp	r3, #1
 8002222:	d102      	bne.n	800222a <USBD_LL_DataInStage+0x42>
 8002224:	2300      	movs	r3, #0
 8002226:	f884 3200 	strb.w	r3, [r4, #512]	; 0x200
 800222a:	2000      	movs	r0, #0
 800222c:	bd70      	pop	{r4, r5, r6, pc}
 800222e:	6983      	ldr	r3, [r0, #24]
 8002230:	fbb3 f5f2 	udiv	r5, r3, r2
 8002234:	fb02 3515 	mls	r5, r2, r5, r3
 8002238:	b965      	cbnz	r5, 8002254 <USBD_LL_DataInStage+0x6c>
 800223a:	429a      	cmp	r2, r3
 800223c:	d80a      	bhi.n	8002254 <USBD_LL_DataInStage+0x6c>
 800223e:	f8d0 21f8 	ldr.w	r2, [r0, #504]	; 0x1f8
 8002242:	4293      	cmp	r3, r2
 8002244:	d206      	bcs.n	8002254 <USBD_LL_DataInStage+0x6c>
 8002246:	462a      	mov	r2, r5
 8002248:	f000 fa28 	bl	800269c <USBD_CtlContinueSendData>
 800224c:	f8c4 51f8 	str.w	r5, [r4, #504]	; 0x1f8
 8002250:	462b      	mov	r3, r5
 8002252:	e7de      	b.n	8002212 <USBD_LL_DataInStage+0x2a>
 8002254:	f8d4 3214 	ldr.w	r3, [r4, #532]	; 0x214
 8002258:	68db      	ldr	r3, [r3, #12]
 800225a:	b12b      	cbz	r3, 8002268 <USBD_LL_DataInStage+0x80>
 800225c:	f894 21fc 	ldrb.w	r2, [r4, #508]	; 0x1fc
 8002260:	2a03      	cmp	r2, #3
 8002262:	d101      	bne.n	8002268 <USBD_LL_DataInStage+0x80>
 8002264:	4620      	mov	r0, r4
 8002266:	4798      	blx	r3
 8002268:	4620      	mov	r0, r4
 800226a:	f000 fa41 	bl	80026f0 <USBD_CtlReceiveStatus>
 800226e:	e7d5      	b.n	800221c <USBD_LL_DataInStage+0x34>
 8002270:	f8d0 3214 	ldr.w	r3, [r0, #532]	; 0x214
 8002274:	695b      	ldr	r3, [r3, #20]
 8002276:	2b00      	cmp	r3, #0
 8002278:	d0d7      	beq.n	800222a <USBD_LL_DataInStage+0x42>
 800227a:	f890 21fc 	ldrb.w	r2, [r0, #508]	; 0x1fc
 800227e:	2a03      	cmp	r2, #3
 8002280:	d1d3      	bne.n	800222a <USBD_LL_DataInStage+0x42>
 8002282:	4798      	blx	r3
 8002284:	e7d1      	b.n	800222a <USBD_LL_DataInStage+0x42>

08002286 <USBD_LL_Reset>:
 8002286:	b538      	push	{r3, r4, r5, lr}
 8002288:	2200      	movs	r2, #0
 800228a:	4604      	mov	r4, r0
 800228c:	4611      	mov	r1, r2
 800228e:	2540      	movs	r5, #64	; 0x40
 8002290:	2340      	movs	r3, #64	; 0x40
 8002292:	f000 fcaf 	bl	8002bf4 <USBD_LL_OpenEP>
 8002296:	462b      	mov	r3, r5
 8002298:	f8c4 5110 	str.w	r5, [r4, #272]	; 0x110
 800229c:	2200      	movs	r2, #0
 800229e:	2180      	movs	r1, #128	; 0x80
 80022a0:	4620      	mov	r0, r4
 80022a2:	f000 fca7 	bl	8002bf4 <USBD_LL_OpenEP>
 80022a6:	2301      	movs	r3, #1
 80022a8:	f884 31fc 	strb.w	r3, [r4, #508]	; 0x1fc
 80022ac:	f8d4 3218 	ldr.w	r3, [r4, #536]	; 0x218
 80022b0:	6225      	str	r5, [r4, #32]
 80022b2:	b12b      	cbz	r3, 80022c0 <USBD_LL_Reset+0x3a>
 80022b4:	f8d4 3214 	ldr.w	r3, [r4, #532]	; 0x214
 80022b8:	7921      	ldrb	r1, [r4, #4]
 80022ba:	685b      	ldr	r3, [r3, #4]
 80022bc:	4620      	mov	r0, r4
 80022be:	4798      	blx	r3
 80022c0:	2000      	movs	r0, #0
 80022c2:	bd38      	pop	{r3, r4, r5, pc}

080022c4 <USBD_LL_SetSpeed>:
 80022c4:	7401      	strb	r1, [r0, #16]
 80022c6:	2000      	movs	r0, #0
 80022c8:	4770      	bx	lr

080022ca <USBD_LL_Suspend>:
 80022ca:	f890 31fc 	ldrb.w	r3, [r0, #508]	; 0x1fc
 80022ce:	f880 31fd 	strb.w	r3, [r0, #509]	; 0x1fd
 80022d2:	2304      	movs	r3, #4
 80022d4:	f880 31fc 	strb.w	r3, [r0, #508]	; 0x1fc
 80022d8:	2000      	movs	r0, #0
 80022da:	4770      	bx	lr

080022dc <USBD_LL_Resume>:
 80022dc:	f890 31fd 	ldrb.w	r3, [r0, #509]	; 0x1fd
 80022e0:	f880 31fc 	strb.w	r3, [r0, #508]	; 0x1fc
 80022e4:	2000      	movs	r0, #0
 80022e6:	4770      	bx	lr

080022e8 <USBD_LL_SOF>:
 80022e8:	b508      	push	{r3, lr}
 80022ea:	f890 21fc 	ldrb.w	r2, [r0, #508]	; 0x1fc
 80022ee:	2a03      	cmp	r2, #3
 80022f0:	d104      	bne.n	80022fc <USBD_LL_SOF+0x14>
 80022f2:	f8d0 3214 	ldr.w	r3, [r0, #532]	; 0x214
 80022f6:	69db      	ldr	r3, [r3, #28]
 80022f8:	b103      	cbz	r3, 80022fc <USBD_LL_SOF+0x14>
 80022fa:	4798      	blx	r3
 80022fc:	2000      	movs	r0, #0
 80022fe:	bd08      	pop	{r3, pc}

08002300 <USBD_LL_IsoINIncomplete>:
 8002300:	2000      	movs	r0, #0
 8002302:	4770      	bx	lr

08002304 <USBD_LL_IsoOUTIncomplete>:
 8002304:	2000      	movs	r0, #0
 8002306:	4770      	bx	lr

08002308 <USBD_LL_DevConnected>:
 8002308:	2000      	movs	r0, #0
 800230a:	4770      	bx	lr

0800230c <USBD_LL_DevDisconnected>:
 800230c:	b508      	push	{r3, lr}
 800230e:	2201      	movs	r2, #1
 8002310:	f880 21fc 	strb.w	r2, [r0, #508]	; 0x1fc
 8002314:	f8d0 2214 	ldr.w	r2, [r0, #532]	; 0x214
 8002318:	7901      	ldrb	r1, [r0, #4]
 800231a:	6852      	ldr	r2, [r2, #4]
 800231c:	4790      	blx	r2
 800231e:	2000      	movs	r0, #0
 8002320:	bd08      	pop	{r3, pc}

08002322 <USBD_CtlError.constprop.0>:
 8002322:	b510      	push	{r4, lr}
 8002324:	2180      	movs	r1, #128	; 0x80
 8002326:	4604      	mov	r4, r0
 8002328:	f000 fc82 	bl	8002c30 <USBD_LL_StallEP>
 800232c:	4620      	mov	r0, r4
 800232e:	2100      	movs	r1, #0
 8002330:	e8bd 4010 	ldmia.w	sp!, {r4, lr}
 8002334:	f000 bc7c 	b.w	8002c30 <USBD_LL_StallEP>

08002338 <USBD_StdDevReq>:
 8002338:	b537      	push	{r0, r1, r2, r4, r5, lr}
 800233a:	784b      	ldrb	r3, [r1, #1]
 800233c:	4604      	mov	r4, r0
 800233e:	460d      	mov	r5, r1
 8002340:	2b09      	cmp	r3, #9
 8002342:	d879      	bhi.n	8002438 <USBD_StdDevReq+0x100>
 8002344:	e8df f013 	tbh	[pc, r3, lsl #1]
 8002348:	00e500c9 	.word	0x00e500c9
 800234c:	00d90078 	.word	0x00d90078
 8002350:	006d0078 	.word	0x006d0078
 8002354:	0078000a 	.word	0x0078000a
 8002358:	008d00b9 	.word	0x008d00b9
 800235c:	884b      	ldrh	r3, [r1, #2]
 800235e:	0a1a      	lsrs	r2, r3, #8
 8002360:	3a01      	subs	r2, #1
 8002362:	2a06      	cmp	r2, #6
 8002364:	d868      	bhi.n	8002438 <USBD_StdDevReq+0x100>
 8002366:	e8df f002 	tbb	[pc, r2]
 800236a:	1c04      	.short	0x1c04
 800236c:	49676729 	.word	0x49676729
 8002370:	52          	.byte	0x52
 8002371:	00          	.byte	0x00
 8002372:	f8d0 3210 	ldr.w	r3, [r0, #528]	; 0x210
 8002376:	681b      	ldr	r3, [r3, #0]
 8002378:	7c20      	ldrb	r0, [r4, #16]
 800237a:	f10d 0106 	add.w	r1, sp, #6
 800237e:	4798      	blx	r3
 8002380:	f8bd 2006 	ldrh.w	r2, [sp, #6]
 8002384:	2a00      	cmp	r2, #0
 8002386:	d067      	beq.n	8002458 <USBD_StdDevReq+0x120>
 8002388:	88eb      	ldrh	r3, [r5, #6]
 800238a:	2b00      	cmp	r3, #0
 800238c:	d064      	beq.n	8002458 <USBD_StdDevReq+0x120>
 800238e:	429a      	cmp	r2, r3
 8002390:	bf28      	it	cs
 8002392:	461a      	movcs	r2, r3
 8002394:	f8ad 2006 	strh.w	r2, [sp, #6]
 8002398:	4601      	mov	r1, r0
 800239a:	4620      	mov	r0, r4
 800239c:	f000 f971 	bl	8002682 <USBD_CtlSendData>
 80023a0:	e05a      	b.n	8002458 <USBD_StdDevReq+0x120>
 80023a2:	7c02      	ldrb	r2, [r0, #16]
 80023a4:	f8d0 3214 	ldr.w	r3, [r0, #532]	; 0x214
 80023a8:	b932      	cbnz	r2, 80023b8 <USBD_StdDevReq+0x80>
 80023aa:	6a9b      	ldr	r3, [r3, #40]	; 0x28
 80023ac:	f10d 0006 	add.w	r0, sp, #6
 80023b0:	4798      	blx	r3
 80023b2:	2302      	movs	r3, #2
 80023b4:	7043      	strb	r3, [r0, #1]
 80023b6:	e7e3      	b.n	8002380 <USBD_StdDevReq+0x48>
 80023b8:	6adb      	ldr	r3, [r3, #44]	; 0x2c
 80023ba:	e7f7      	b.n	80023ac <USBD_StdDevReq+0x74>
 80023bc:	b2db      	uxtb	r3, r3
 80023be:	2b05      	cmp	r3, #5
 80023c0:	d83a      	bhi.n	8002438 <USBD_StdDevReq+0x100>
 80023c2:	e8df f003 	tbb	[pc, r3]
 80023c6:	0703      	.short	0x0703
 80023c8:	17130f0b 	.word	0x17130f0b
 80023cc:	f8d0 3210 	ldr.w	r3, [r0, #528]	; 0x210
 80023d0:	685b      	ldr	r3, [r3, #4]
 80023d2:	e7d1      	b.n	8002378 <USBD_StdDevReq+0x40>
 80023d4:	f8d0 3210 	ldr.w	r3, [r0, #528]	; 0x210
 80023d8:	689b      	ldr	r3, [r3, #8]
 80023da:	e7cd      	b.n	8002378 <USBD_StdDevReq+0x40>
 80023dc:	f8d0 3210 	ldr.w	r3, [r0, #528]	; 0x210
 80023e0:	68db      	ldr	r3, [r3, #12]
 80023e2:	e7c9      	b.n	8002378 <USBD_StdDevReq+0x40>
 80023e4:	f8d0 3210 	ldr.w	r3, [r0, #528]	; 0x210
 80023e8:	691b      	ldr	r3, [r3, #16]
 80023ea:	e7c5      	b.n	8002378 <USBD_StdDevReq+0x40>
 80023ec:	f8d0 3210 	ldr.w	r3, [r0, #528]	; 0x210
 80023f0:	695b      	ldr	r3, [r3, #20]
 80023f2:	e7c1      	b.n	8002378 <USBD_StdDevReq+0x40>
 80023f4:	f8d0 3210 	ldr.w	r3, [r0, #528]	; 0x210
 80023f8:	699b      	ldr	r3, [r3, #24]
 80023fa:	e7bd      	b.n	8002378 <USBD_StdDevReq+0x40>
 80023fc:	7c03      	ldrb	r3, [r0, #16]
 80023fe:	b9db      	cbnz	r3, 8002438 <USBD_StdDevReq+0x100>
 8002400:	f8d0 3214 	ldr.w	r3, [r0, #532]	; 0x214
 8002404:	f10d 0006 	add.w	r0, sp, #6
 8002408:	6b5b      	ldr	r3, [r3, #52]	; 0x34
 800240a:	4798      	blx	r3
 800240c:	e7b8      	b.n	8002380 <USBD_StdDevReq+0x48>
 800240e:	7c03      	ldrb	r3, [r0, #16]
 8002410:	b993      	cbnz	r3, 8002438 <USBD_StdDevReq+0x100>
 8002412:	f8d0 3214 	ldr.w	r3, [r0, #532]	; 0x214
 8002416:	f10d 0006 	add.w	r0, sp, #6
 800241a:	6b1b      	ldr	r3, [r3, #48]	; 0x30
 800241c:	4798      	blx	r3
 800241e:	2307      	movs	r3, #7
 8002420:	e7c8      	b.n	80023b4 <USBD_StdDevReq+0x7c>
 8002422:	888b      	ldrh	r3, [r1, #4]
 8002424:	b943      	cbnz	r3, 8002438 <USBD_StdDevReq+0x100>
 8002426:	88cb      	ldrh	r3, [r1, #6]
 8002428:	b933      	cbnz	r3, 8002438 <USBD_StdDevReq+0x100>
 800242a:	f890 31fc 	ldrb.w	r3, [r0, #508]	; 0x1fc
 800242e:	788d      	ldrb	r5, [r1, #2]
 8002430:	2b03      	cmp	r3, #3
 8002432:	f005 057f 	and.w	r5, r5, #127	; 0x7f
 8002436:	d103      	bne.n	8002440 <USBD_StdDevReq+0x108>
 8002438:	4620      	mov	r0, r4
 800243a:	f7ff ff72 	bl	8002322 <USBD_CtlError.constprop.0>
 800243e:	e00b      	b.n	8002458 <USBD_StdDevReq+0x120>
 8002440:	f880 51fe 	strb.w	r5, [r0, #510]	; 0x1fe
 8002444:	4629      	mov	r1, r5
 8002446:	f000 fc23 	bl	8002c90 <USBD_LL_SetUSBAddress>
 800244a:	4620      	mov	r0, r4
 800244c:	f000 f945 	bl	80026da <USBD_CtlSendStatus>
 8002450:	b12d      	cbz	r5, 800245e <USBD_StdDevReq+0x126>
 8002452:	2302      	movs	r3, #2
 8002454:	f884 31fc 	strb.w	r3, [r4, #508]	; 0x1fc
 8002458:	2000      	movs	r0, #0
 800245a:	b003      	add	sp, #12
 800245c:	bd30      	pop	{r4, r5, pc}
 800245e:	2301      	movs	r3, #1
 8002460:	e7f8      	b.n	8002454 <USBD_StdDevReq+0x11c>
 8002462:	7889      	ldrb	r1, [r1, #2]
 8002464:	4d30      	ldr	r5, [pc, #192]	; (8002528 <USBD_StdDevReq+0x1f0>)
 8002466:	2901      	cmp	r1, #1
 8002468:	7029      	strb	r1, [r5, #0]
 800246a:	d8e5      	bhi.n	8002438 <USBD_StdDevReq+0x100>
 800246c:	f890 31fc 	ldrb.w	r3, [r0, #508]	; 0x1fc
 8002470:	2b02      	cmp	r3, #2
 8002472:	d00c      	beq.n	800248e <USBD_StdDevReq+0x156>
 8002474:	2b03      	cmp	r3, #3
 8002476:	d1df      	bne.n	8002438 <USBD_StdDevReq+0x100>
 8002478:	b9b1      	cbnz	r1, 80024a8 <USBD_StdDevReq+0x170>
 800247a:	2302      	movs	r3, #2
 800247c:	f880 31fc 	strb.w	r3, [r0, #508]	; 0x1fc
 8002480:	6041      	str	r1, [r0, #4]
 8002482:	f7ff fe4b 	bl	800211c <USBD_ClrClassConfig>
 8002486:	4620      	mov	r0, r4
 8002488:	f000 f927 	bl	80026da <USBD_CtlSendStatus>
 800248c:	e7e4      	b.n	8002458 <USBD_StdDevReq+0x120>
 800248e:	2900      	cmp	r1, #0
 8002490:	d0f9      	beq.n	8002486 <USBD_StdDevReq+0x14e>
 8002492:	2101      	movs	r1, #1
 8002494:	2303      	movs	r3, #3
 8002496:	6041      	str	r1, [r0, #4]
 8002498:	f880 31fc 	strb.w	r3, [r0, #508]	; 0x1fc
 800249c:	4620      	mov	r0, r4
 800249e:	f7ff fe32 	bl	8002106 <USBD_SetClassConfig>
 80024a2:	2802      	cmp	r0, #2
 80024a4:	d1ef      	bne.n	8002486 <USBD_StdDevReq+0x14e>
 80024a6:	e7c7      	b.n	8002438 <USBD_StdDevReq+0x100>
 80024a8:	6841      	ldr	r1, [r0, #4]
 80024aa:	2901      	cmp	r1, #1
 80024ac:	d0eb      	beq.n	8002486 <USBD_StdDevReq+0x14e>
 80024ae:	b2c9      	uxtb	r1, r1
 80024b0:	f7ff fe34 	bl	800211c <USBD_ClrClassConfig>
 80024b4:	7829      	ldrb	r1, [r5, #0]
 80024b6:	6061      	str	r1, [r4, #4]
 80024b8:	e7f0      	b.n	800249c <USBD_StdDevReq+0x164>
 80024ba:	88ca      	ldrh	r2, [r1, #6]
 80024bc:	2a01      	cmp	r2, #1
 80024be:	d1bb      	bne.n	8002438 <USBD_StdDevReq+0x100>
 80024c0:	f890 31fc 	ldrb.w	r3, [r0, #508]	; 0x1fc
 80024c4:	2b02      	cmp	r3, #2
 80024c6:	d003      	beq.n	80024d0 <USBD_StdDevReq+0x198>
 80024c8:	2b03      	cmp	r3, #3
 80024ca:	d1b5      	bne.n	8002438 <USBD_StdDevReq+0x100>
 80024cc:	1d01      	adds	r1, r0, #4
 80024ce:	e764      	b.n	800239a <USBD_StdDevReq+0x62>
 80024d0:	4601      	mov	r1, r0
 80024d2:	2300      	movs	r3, #0
 80024d4:	f841 3f08 	str.w	r3, [r1, #8]!
 80024d8:	e75f      	b.n	800239a <USBD_StdDevReq+0x62>
 80024da:	f890 31fc 	ldrb.w	r3, [r0, #508]	; 0x1fc
 80024de:	3b02      	subs	r3, #2
 80024e0:	2b01      	cmp	r3, #1
 80024e2:	d8a9      	bhi.n	8002438 <USBD_StdDevReq+0x100>
 80024e4:	2301      	movs	r3, #1
 80024e6:	60c3      	str	r3, [r0, #12]
 80024e8:	f8d0 3204 	ldr.w	r3, [r0, #516]	; 0x204
 80024ec:	b10b      	cbz	r3, 80024f2 <USBD_StdDevReq+0x1ba>
 80024ee:	2303      	movs	r3, #3
 80024f0:	60c3      	str	r3, [r0, #12]
 80024f2:	2202      	movs	r2, #2
 80024f4:	f104 010c 	add.w	r1, r4, #12
 80024f8:	e74f      	b.n	800239a <USBD_StdDevReq+0x62>
 80024fa:	884b      	ldrh	r3, [r1, #2]
 80024fc:	2b01      	cmp	r3, #1
 80024fe:	d1ab      	bne.n	8002458 <USBD_StdDevReq+0x120>
 8002500:	f8c4 3204 	str.w	r3, [r4, #516]	; 0x204
 8002504:	f8d4 3214 	ldr.w	r3, [r4, #532]	; 0x214
 8002508:	4629      	mov	r1, r5
 800250a:	689b      	ldr	r3, [r3, #8]
 800250c:	4620      	mov	r0, r4
 800250e:	4798      	blx	r3
 8002510:	e7b9      	b.n	8002486 <USBD_StdDevReq+0x14e>
 8002512:	f890 31fc 	ldrb.w	r3, [r0, #508]	; 0x1fc
 8002516:	3b02      	subs	r3, #2
 8002518:	2b01      	cmp	r3, #1
 800251a:	d88d      	bhi.n	8002438 <USBD_StdDevReq+0x100>
 800251c:	884b      	ldrh	r3, [r1, #2]
 800251e:	2b01      	cmp	r3, #1
 8002520:	d19a      	bne.n	8002458 <USBD_StdDevReq+0x120>
 8002522:	2300      	movs	r3, #0
 8002524:	e7ec      	b.n	8002500 <USBD_StdDevReq+0x1c8>
 8002526:	bf00      	nop
 8002528:	200001e1 	.word	0x200001e1

0800252c <USBD_StdItfReq>:
 800252c:	b538      	push	{r3, r4, r5, lr}
 800252e:	f890 31fc 	ldrb.w	r3, [r0, #508]	; 0x1fc
 8002532:	2b03      	cmp	r3, #3
 8002534:	4604      	mov	r4, r0
 8002536:	460d      	mov	r5, r1
 8002538:	d10d      	bne.n	8002556 <USBD_StdItfReq+0x2a>
 800253a:	790b      	ldrb	r3, [r1, #4]
 800253c:	2b01      	cmp	r3, #1
 800253e:	d80a      	bhi.n	8002556 <USBD_StdItfReq+0x2a>
 8002540:	f8d0 3214 	ldr.w	r3, [r0, #532]	; 0x214
 8002544:	689b      	ldr	r3, [r3, #8]
 8002546:	4798      	blx	r3
 8002548:	88eb      	ldrh	r3, [r5, #6]
 800254a:	b913      	cbnz	r3, 8002552 <USBD_StdItfReq+0x26>
 800254c:	4620      	mov	r0, r4
 800254e:	f000 f8c4 	bl	80026da <USBD_CtlSendStatus>
 8002552:	2000      	movs	r0, #0
 8002554:	bd38      	pop	{r3, r4, r5, pc}
 8002556:	f7ff fee4 	bl	8002322 <USBD_CtlError.constprop.0>
 800255a:	e7fa      	b.n	8002552 <USBD_StdItfReq+0x26>

0800255c <USBD_StdEPReq>:
 800255c:	b570      	push	{r4, r5, r6, lr}
 800255e:	780a      	ldrb	r2, [r1, #0]
 8002560:	888e      	ldrh	r6, [r1, #4]
 8002562:	f002 0260 	and.w	r2, r2, #96	; 0x60
 8002566:	2a20      	cmp	r2, #32
 8002568:	4604      	mov	r4, r0
 800256a:	460d      	mov	r5, r1
 800256c:	b2f3      	uxtb	r3, r6
 800256e:	d105      	bne.n	800257c <USBD_StdEPReq+0x20>
 8002570:	f8d0 3214 	ldr.w	r3, [r0, #532]	; 0x214
 8002574:	689b      	ldr	r3, [r3, #8]
 8002576:	4798      	blx	r3
 8002578:	2000      	movs	r0, #0
 800257a:	bd70      	pop	{r4, r5, r6, pc}
 800257c:	784a      	ldrb	r2, [r1, #1]
 800257e:	2a01      	cmp	r2, #1
 8002580:	d01c      	beq.n	80025bc <USBD_StdEPReq+0x60>
 8002582:	d32a      	bcc.n	80025da <USBD_StdEPReq+0x7e>
 8002584:	2a03      	cmp	r2, #3
 8002586:	d1f7      	bne.n	8002578 <USBD_StdEPReq+0x1c>
 8002588:	f890 21fc 	ldrb.w	r2, [r0, #508]	; 0x1fc
 800258c:	2a02      	cmp	r2, #2
 800258e:	d040      	beq.n	8002612 <USBD_StdEPReq+0xb6>
 8002590:	2a03      	cmp	r2, #3
 8002592:	d002      	beq.n	800259a <USBD_StdEPReq+0x3e>
 8002594:	f7ff fec5 	bl	8002322 <USBD_CtlError.constprop.0>
 8002598:	e7ee      	b.n	8002578 <USBD_StdEPReq+0x1c>
 800259a:	884a      	ldrh	r2, [r1, #2]
 800259c:	b922      	cbnz	r2, 80025a8 <USBD_StdEPReq+0x4c>
 800259e:	065e      	lsls	r6, r3, #25
 80025a0:	d002      	beq.n	80025a8 <USBD_StdEPReq+0x4c>
 80025a2:	4619      	mov	r1, r3
 80025a4:	f000 fb44 	bl	8002c30 <USBD_LL_StallEP>
 80025a8:	f8d4 3214 	ldr.w	r3, [r4, #532]	; 0x214
 80025ac:	4629      	mov	r1, r5
 80025ae:	689b      	ldr	r3, [r3, #8]
 80025b0:	4620      	mov	r0, r4
 80025b2:	4798      	blx	r3
 80025b4:	4620      	mov	r0, r4
 80025b6:	f000 f890 	bl	80026da <USBD_CtlSendStatus>
 80025ba:	e7dd      	b.n	8002578 <USBD_StdEPReq+0x1c>
 80025bc:	f890 21fc 	ldrb.w	r2, [r0, #508]	; 0x1fc
 80025c0:	2a02      	cmp	r2, #2
 80025c2:	d026      	beq.n	8002612 <USBD_StdEPReq+0xb6>
 80025c4:	2a03      	cmp	r2, #3
 80025c6:	d1e5      	bne.n	8002594 <USBD_StdEPReq+0x38>
 80025c8:	884a      	ldrh	r2, [r1, #2]
 80025ca:	2a00      	cmp	r2, #0
 80025cc:	d1d4      	bne.n	8002578 <USBD_StdEPReq+0x1c>
 80025ce:	0659      	lsls	r1, r3, #25
 80025d0:	d0f0      	beq.n	80025b4 <USBD_StdEPReq+0x58>
 80025d2:	4619      	mov	r1, r3
 80025d4:	f000 fb3a 	bl	8002c4c <USBD_LL_ClearStallEP>
 80025d8:	e7e6      	b.n	80025a8 <USBD_StdEPReq+0x4c>
 80025da:	f890 21fc 	ldrb.w	r2, [r0, #508]	; 0x1fc
 80025de:	2a02      	cmp	r2, #2
 80025e0:	d017      	beq.n	8002612 <USBD_StdEPReq+0xb6>
 80025e2:	2a03      	cmp	r2, #3
 80025e4:	d1d6      	bne.n	8002594 <USBD_StdEPReq+0x38>
 80025e6:	f003 057f 	and.w	r5, r3, #127	; 0x7f
 80025ea:	f016 0f80 	tst.w	r6, #128	; 0x80
 80025ee:	eb00 1505 	add.w	r5, r0, r5, lsl #4
 80025f2:	4619      	mov	r1, r3
 80025f4:	bf14      	ite	ne
 80025f6:	3514      	addne	r5, #20
 80025f8:	f505 7582 	addeq.w	r5, r5, #260	; 0x104
 80025fc:	f000 fb34 	bl	8002c68 <USBD_LL_IsStallEP>
 8002600:	b168      	cbz	r0, 800261e <USBD_StdEPReq+0xc2>
 8002602:	2301      	movs	r3, #1
 8002604:	602b      	str	r3, [r5, #0]
 8002606:	2202      	movs	r2, #2
 8002608:	4629      	mov	r1, r5
 800260a:	4620      	mov	r0, r4
 800260c:	f000 f839 	bl	8002682 <USBD_CtlSendData>
 8002610:	e7b2      	b.n	8002578 <USBD_StdEPReq+0x1c>
 8002612:	065a      	lsls	r2, r3, #25
 8002614:	d0b0      	beq.n	8002578 <USBD_StdEPReq+0x1c>
 8002616:	4619      	mov	r1, r3
 8002618:	f000 fb0a 	bl	8002c30 <USBD_LL_StallEP>
 800261c:	e7ac      	b.n	8002578 <USBD_StdEPReq+0x1c>
 800261e:	6028      	str	r0, [r5, #0]
 8002620:	e7f1      	b.n	8002606 <USBD_StdEPReq+0xaa>

08002622 <USBD_ParseSetupRequest>:
 8002622:	780b      	ldrb	r3, [r1, #0]
 8002624:	7003      	strb	r3, [r0, #0]
 8002626:	784b      	ldrb	r3, [r1, #1]
 8002628:	7043      	strb	r3, [r0, #1]
 800262a:	78ca      	ldrb	r2, [r1, #3]
 800262c:	788b      	ldrb	r3, [r1, #2]
 800262e:	eb03 2302 	add.w	r3, r3, r2, lsl #8
 8002632:	8043      	strh	r3, [r0, #2]
 8002634:	794a      	ldrb	r2, [r1, #5]
 8002636:	790b      	ldrb	r3, [r1, #4]
 8002638:	eb03 2302 	add.w	r3, r3, r2, lsl #8
 800263c:	8083      	strh	r3, [r0, #4]
 800263e:	79ca      	ldrb	r2, [r1, #7]
 8002640:	798b      	ldrb	r3, [r1, #6]
 8002642:	eb03 2302 	add.w	r3, r3, r2, lsl #8
 8002646:	80c3      	strh	r3, [r0, #6]
 8002648:	4770      	bx	lr

0800264a <USBD_GetString>:
 800264a:	b530      	push	{r4, r5, lr}
 800264c:	b188      	cbz	r0, 8002672 <USBD_GetString+0x28>
 800264e:	4605      	mov	r5, r0
 8002650:	1a2b      	subs	r3, r5, r0
 8002652:	f815 4b01 	ldrb.w	r4, [r5], #1
 8002656:	b2db      	uxtb	r3, r3
 8002658:	2c00      	cmp	r4, #0
 800265a:	d1f9      	bne.n	8002650 <USBD_GetString+0x6>
 800265c:	005b      	lsls	r3, r3, #1
 800265e:	3302      	adds	r3, #2
 8002660:	8013      	strh	r3, [r2, #0]
 8002662:	700b      	strb	r3, [r1, #0]
 8002664:	2303      	movs	r3, #3
 8002666:	704b      	strb	r3, [r1, #1]
 8002668:	3801      	subs	r0, #1
 800266a:	2302      	movs	r3, #2
 800266c:	f810 5f01 	ldrb.w	r5, [r0, #1]!
 8002670:	b905      	cbnz	r5, 8002674 <USBD_GetString+0x2a>
 8002672:	bd30      	pop	{r4, r5, pc}
 8002674:	1c5a      	adds	r2, r3, #1
 8002676:	b2d2      	uxtb	r2, r2
 8002678:	54cd      	strb	r5, [r1, r3]
 800267a:	3302      	adds	r3, #2
 800267c:	b2db      	uxtb	r3, r3
 800267e:	548c      	strb	r4, [r1, r2]
 8002680:	e7f4      	b.n	800266c <USBD_GetString+0x22>

08002682 <USBD_CtlSendData>:
 8002682:	b510      	push	{r4, lr}
 8002684:	4613      	mov	r3, r2
 8002686:	2202      	movs	r2, #2
 8002688:	f8c0 21f4 	str.w	r2, [r0, #500]	; 0x1f4
 800268c:	6183      	str	r3, [r0, #24]
 800268e:	460a      	mov	r2, r1
 8002690:	61c3      	str	r3, [r0, #28]
 8002692:	2100      	movs	r1, #0
 8002694:	f000 fb0a 	bl	8002cac <USBD_LL_Transmit>
 8002698:	2000      	movs	r0, #0
 800269a:	bd10      	pop	{r4, pc}

0800269c <USBD_CtlContinueSendData>:
 800269c:	b508      	push	{r3, lr}
 800269e:	4613      	mov	r3, r2
 80026a0:	460a      	mov	r2, r1
 80026a2:	2100      	movs	r1, #0
 80026a4:	f000 fb02 	bl	8002cac <USBD_LL_Transmit>
 80026a8:	2000      	movs	r0, #0
 80026aa:	bd08      	pop	{r3, pc}

080026ac <USBD_CtlPrepareRx>:
 80026ac:	b510      	push	{r4, lr}
 80026ae:	4613      	mov	r3, r2
 80026b0:	2203      	movs	r2, #3
 80026b2:	f8c0 21f4 	str.w	r2, [r0, #500]	; 0x1f4
 80026b6:	f8c0 3108 	str.w	r3, [r0, #264]	; 0x108
 80026ba:	460a      	mov	r2, r1
 80026bc:	f8c0 310c 	str.w	r3, [r0, #268]	; 0x10c
 80026c0:	2100      	movs	r1, #0
 80026c2:	f000 fb01 	bl	8002cc8 <USBD_LL_PrepareReceive>
 80026c6:	2000      	movs	r0, #0
 80026c8:	bd10      	pop	{r4, pc}

080026ca <USBD_CtlContinueRx>:
 80026ca:	b508      	push	{r3, lr}
 80026cc:	4613      	mov	r3, r2
 80026ce:	460a      	mov	r2, r1
 80026d0:	2100      	movs	r1, #0
 80026d2:	f000 faf9 	bl	8002cc8 <USBD_LL_PrepareReceive>
 80026d6:	2000      	movs	r0, #0
 80026d8:	bd08      	pop	{r3, pc}

080026da <USBD_CtlSendStatus>:
 80026da:	b508      	push	{r3, lr}
 80026dc:	2304      	movs	r3, #4
 80026de:	f8c0 31f4 	str.w	r3, [r0, #500]	; 0x1f4
 80026e2:	2300      	movs	r3, #0
 80026e4:	461a      	mov	r2, r3
 80026e6:	4619      	mov	r1, r3
 80026e8:	f000 fae0 	bl	8002cac <USBD_LL_Transmit>
 80026ec:	2000      	movs	r0, #0
 80026ee:	bd08      	pop	{r3, pc}

080026f0 <USBD_CtlReceiveStatus>:
 80026f0:	b508      	push	{r3, lr}
 80026f2:	2305      	movs	r3, #5
 80026f4:	f8c0 31f4 	str.w	r3, [r0, #500]	; 0x1f4
 80026f8:	2300      	movs	r3, #0
 80026fa:	461a      	mov	r2, r3
 80026fc:	4619      	mov	r1, r3
 80026fe:	f000 fae3 	bl	8002cc8 <USBD_LL_PrepareReceive>
 8002702:	2000      	movs	r0, #0
 8002704:	bd08      	pop	{r3, pc}
	...

08002708 <SystemClock_Config>:
/**
  * @brief System Clock Configuration
  * @retval None
  */
void SystemClock_Config(void)
{
 8002708:	b530      	push	{r4, r5, lr}
 800270a:	b095      	sub	sp, #84	; 0x54
  RCC_OscInitTypeDef RCC_OscInitStruct;
  RCC_ClkInitTypeDef RCC_ClkInitStruct;

    /**Configure the main internal regulator output voltage 
    */
  __HAL_RCC_PWR_CLK_ENABLE();
 800270c:	2100      	movs	r1, #0
 800270e:	4b27      	ldr	r3, [pc, #156]	; (80027ac <SystemClock_Config+0xa4>)
 8002710:	9101      	str	r1, [sp, #4]
 8002712:	6c1a      	ldr	r2, [r3, #64]	; 0x40
 8002714:	f042 5280 	orr.w	r2, r2, #268435456	; 0x10000000
 8002718:	641a      	str	r2, [r3, #64]	; 0x40
 800271a:	6c1b      	ldr	r3, [r3, #64]	; 0x40
 800271c:	f003 5380 	and.w	r3, r3, #268435456	; 0x10000000
 8002720:	9301      	str	r3, [sp, #4]
 8002722:	9b01      	ldr	r3, [sp, #4]

  __HAL_PWR_VOLTAGESCALING_CONFIG(PWR_REGULATOR_VOLTAGE_SCALE1);
 8002724:	4b22      	ldr	r3, [pc, #136]	; (80027b0 <SystemClock_Config+0xa8>)
 8002726:	9102      	str	r1, [sp, #8]
 8002728:	681a      	ldr	r2, [r3, #0]
 800272a:	f442 4280 	orr.w	r2, r2, #16384	; 0x4000
 800272e:	601a      	str	r2, [r3, #0]
 8002730:	681b      	ldr	r3, [r3, #0]

    /**Initializes the CPU, AHB and APB busses clocks 
    */
  RCC_OscInitStruct.OscillatorType = RCC_OSCILLATORTYPE_HSI|RCC_OSCILLATORTYPE_HSE;
  RCC_OscInitStruct.HSEState = RCC_HSE_ON;
 8002732:	f44f 3280 	mov.w	r2, #65536	; 0x10000
  __HAL_PWR_VOLTAGESCALING_CONFIG(PWR_REGULATOR_VOLTAGE_SCALE1);
 8002736:	f403 4380 	and.w	r3, r3, #16384	; 0x4000
  RCC_OscInitStruct.HSEState = RCC_HSE_ON;
 800273a:	9209      	str	r2, [sp, #36]	; 0x24
  RCC_OscInitStruct.HSIState = RCC_HSI_ON;
 800273c:	2201      	movs	r2, #1
  __HAL_PWR_VOLTAGESCALING_CONFIG(PWR_REGULATOR_VOLTAGE_SCALE1);
 800273e:	9302      	str	r3, [sp, #8]
  RCC_OscInitStruct.HSIState = RCC_HSI_ON;
 8002740:	920b      	str	r2, [sp, #44]	; 0x2c
  RCC_OscInitStruct.HSICalibrationValue = 16;
  RCC_OscInitStruct.PLL.PLLState = RCC_PLL_ON;
  RCC_OscInitStruct.PLL.PLLSource = RCC_PLLSOURCE_HSE;
 8002742:	f44f 0180 	mov.w	r1, #4194304	; 0x400000
  RCC_OscInitStruct.HSICalibrationValue = 16;
 8002746:	2210      	movs	r2, #16
  __HAL_PWR_VOLTAGESCALING_CONFIG(PWR_REGULATOR_VOLTAGE_SCALE1);
 8002748:	9b02      	ldr	r3, [sp, #8]
  RCC_OscInitStruct.HSICalibrationValue = 16;
 800274a:	920c      	str	r2, [sp, #48]	; 0x30
  RCC_OscInitStruct.OscillatorType = RCC_OSCILLATORTYPE_HSI|RCC_OSCILLATORTYPE_HSE;
 800274c:	2303      	movs	r3, #3
  RCC_OscInitStruct.PLL.PLLState = RCC_PLL_ON;
 800274e:	2202      	movs	r2, #2
  RCC_OscInitStruct.PLL.PLLSource = RCC_PLLSOURCE_HSE;
 8002750:	910f      	str	r1, [sp, #60]	; 0x3c
  RCC_OscInitStruct.PLL.PLLM = 4;
 8002752:	2504      	movs	r5, #4
  RCC_OscInitStruct.PLL.PLLN = 72;
 8002754:	2148      	movs	r1, #72	; 0x48
  RCC_OscInitStruct.PLL.PLLP = RCC_PLLP_DIV2;
  RCC_OscInitStruct.PLL.PLLQ = 3;
  if (HAL_RCC_OscConfig(&RCC_OscInitStruct) != HAL_OK)
 8002756:	a808      	add	r0, sp, #32
  RCC_OscInitStruct.PLL.PLLN = 72;
 8002758:	9111      	str	r1, [sp, #68]	; 0x44
  RCC_OscInitStruct.OscillatorType = RCC_OSCILLATORTYPE_HSI|RCC_OSCILLATORTYPE_HSE;
 800275a:	9308      	str	r3, [sp, #32]
  RCC_OscInitStruct.PLL.PLLState = RCC_PLL_ON;
 800275c:	920e      	str	r2, [sp, #56]	; 0x38
  RCC_OscInitStruct.PLL.PLLM = 4;
 800275e:	9510      	str	r5, [sp, #64]	; 0x40
  RCC_OscInitStruct.PLL.PLLP = RCC_PLLP_DIV2;
 8002760:	9212      	str	r2, [sp, #72]	; 0x48
  RCC_OscInitStruct.PLL.PLLQ = 3;
 8002762:	9313      	str	r3, [sp, #76]	; 0x4c
  if (HAL_RCC_OscConfig(&RCC_OscInitStruct) != HAL_OK)
 8002764:	f7fe fd24 	bl	80011b0 <HAL_RCC_OscConfig>
 8002768:	4601      	mov	r1, r0
 800276a:	b100      	cbz	r0, 800276e <SystemClock_Config+0x66>
 800276c:	e7fe      	b.n	800276c <SystemClock_Config+0x64>
    _Error_Handler(__FILE__, __LINE__);
  }

    /**Initializes the CPU, AHB and APB busses clocks 
    */
  RCC_ClkInitStruct.ClockType = RCC_CLOCKTYPE_HCLK|RCC_CLOCKTYPE_SYSCLK
 800276e:	230f      	movs	r3, #15
                              |RCC_CLOCKTYPE_PCLK1|RCC_CLOCKTYPE_PCLK2;
  RCC_ClkInitStruct.SYSCLKSource = RCC_SYSCLKSOURCE_HSI;
 8002770:	9004      	str	r0, [sp, #16]
  RCC_ClkInitStruct.AHBCLKDivider = RCC_SYSCLK_DIV1;
 8002772:	9005      	str	r0, [sp, #20]
  RCC_ClkInitStruct.APB1CLKDivider = RCC_HCLK_DIV1;
 8002774:	9006      	str	r0, [sp, #24]
  RCC_ClkInitStruct.APB2CLKDivider = RCC_HCLK_DIV1;
 8002776:	9007      	str	r0, [sp, #28]

  if (HAL_RCC_ClockConfig(&RCC_ClkInitStruct, FLASH_LATENCY_0) != HAL_OK)
 8002778:	a803      	add	r0, sp, #12
  RCC_ClkInitStruct.ClockType = RCC_CLOCKTYPE_HCLK|RCC_CLOCKTYPE_SYSCLK
 800277a:	9303      	str	r3, [sp, #12]
  if (HAL_RCC_ClockConfig(&RCC_ClkInitStruct, FLASH_LATENCY_0) != HAL_OK)
 800277c:	f7fe fec8 	bl	8001510 <HAL_RCC_ClockConfig>
 8002780:	4604      	mov	r4, r0
 8002782:	b100      	cbz	r0, 8002786 <SystemClock_Config+0x7e>
 8002784:	e7fe      	b.n	8002784 <SystemClock_Config+0x7c>
    _Error_Handler(__FILE__, __LINE__);
  }

    /**Configure the Systick interrupt time 
    */
  HAL_SYSTICK_Config(HAL_RCC_GetHCLKFreq()/1000);
 8002786:	f7fe ff5d 	bl	8001644 <HAL_RCC_GetHCLKFreq>
 800278a:	f44f 737a 	mov.w	r3, #1000	; 0x3e8
 800278e:	fbb0 f0f3 	udiv	r0, r0, r3
 8002792:	f7fd ffab 	bl	80006ec <HAL_SYSTICK_Config>

    /**Configure the Systick 
    */
  HAL_SYSTICK_CLKSourceConfig(SYSTICK_CLKSOURCE_HCLK);
 8002796:	4628      	mov	r0, r5
 8002798:	f7fd ffbe 	bl	8000718 <HAL_SYSTICK_CLKSourceConfig>

  /* SysTick_IRQn interrupt configuration */
  HAL_NVIC_SetPriority(SysTick_IRQn, 0, 0);
 800279c:	4622      	mov	r2, r4
 800279e:	4621      	mov	r1, r4
 80027a0:	f04f 30ff 	mov.w	r0, #4294967295
 80027a4:	f7fd ff62 	bl	800066c <HAL_NVIC_SetPriority>
}
 80027a8:	b015      	add	sp, #84	; 0x54
 80027aa:	bd30      	pop	{r4, r5, pc}
 80027ac:	40023800 	.word	0x40023800
 80027b0:	40007000 	.word	0x40007000

080027b4 <main>:
{
 80027b4:	e92d 41f0 	stmdb	sp!, {r4, r5, r6, r7, r8, lr}
 80027b8:	b0ce      	sub	sp, #312	; 0x138
  HAL_Init();
 80027ba:	f7fd ff05 	bl	80005c8 <HAL_Init>
  SystemClock_Config();
 80027be:	f7ff ffa3 	bl	8002708 <SystemClock_Config>
{

  GPIO_InitTypeDef GPIO_InitStruct;

  /* GPIO Ports Clock Enable */
  __HAL_RCC_GPIOH_CLK_ENABLE();
 80027c2:	2200      	movs	r2, #0
 80027c4:	4b30      	ldr	r3, [pc, #192]	; (8002888 <main+0xd4>)
 80027c6:	9200      	str	r2, [sp, #0]
 80027c8:	6b19      	ldr	r1, [r3, #48]	; 0x30

  /*Configure GPIO pin : Button_Pin */
  GPIO_InitStruct.Pin = Button_Pin;
  GPIO_InitStruct.Mode = GPIO_MODE_INPUT;
  GPIO_InitStruct.Pull = GPIO_NOPULL;
  HAL_GPIO_Init(Button_GPIO_Port, &GPIO_InitStruct);
 80027ca:	4830      	ldr	r0, [pc, #192]	; (800288c <main+0xd8>)
		   CDC_Transmit_FS(DataToSend, MessageLength);
 80027cc:	4d30      	ldr	r5, [pc, #192]	; (8002890 <main+0xdc>)
			   buff[i]=*(char*)(fileaddr+dataoffset+i);
 80027ce:	4e31      	ldr	r6, [pc, #196]	; (8002894 <main+0xe0>)
  __HAL_RCC_GPIOH_CLK_ENABLE();
 80027d0:	f041 0180 	orr.w	r1, r1, #128	; 0x80
 80027d4:	6319      	str	r1, [r3, #48]	; 0x30
 80027d6:	6b19      	ldr	r1, [r3, #48]	; 0x30
 80027d8:	f001 0180 	and.w	r1, r1, #128	; 0x80
 80027dc:	9100      	str	r1, [sp, #0]
 80027de:	9900      	ldr	r1, [sp, #0]
  __HAL_RCC_GPIOA_CLK_ENABLE();
 80027e0:	9201      	str	r2, [sp, #4]
 80027e2:	6b19      	ldr	r1, [r3, #48]	; 0x30
 80027e4:	f041 0101 	orr.w	r1, r1, #1
 80027e8:	6319      	str	r1, [r3, #48]	; 0x30
 80027ea:	6b1b      	ldr	r3, [r3, #48]	; 0x30
  GPIO_InitStruct.Mode = GPIO_MODE_INPUT;
 80027ec:	9203      	str	r2, [sp, #12]
  __HAL_RCC_GPIOA_CLK_ENABLE();
 80027ee:	f003 0301 	and.w	r3, r3, #1
  GPIO_InitStruct.Pin = Button_Pin;
 80027f2:	ac02      	add	r4, sp, #8
  __HAL_RCC_GPIOA_CLK_ENABLE();
 80027f4:	9301      	str	r3, [sp, #4]
 80027f6:	9b01      	ldr	r3, [sp, #4]
  GPIO_InitStruct.Pull = GPIO_NOPULL;
 80027f8:	60a2      	str	r2, [r4, #8]
  GPIO_InitStruct.Pin = Button_Pin;
 80027fa:	2301      	movs	r3, #1
  HAL_GPIO_Init(Button_GPIO_Port, &GPIO_InitStruct);
 80027fc:	4621      	mov	r1, r4
  GPIO_InitStruct.Pin = Button_Pin;
 80027fe:	6023      	str	r3, [r4, #0]
  HAL_GPIO_Init(Button_GPIO_Port, &GPIO_InitStruct);
 8002800:	f7fd ff9c 	bl	800073c <HAL_GPIO_Init>
  MX_USB_DEVICE_Init();
 8002804:	f000 f8c2 	bl	800298c <MX_USB_DEVICE_Init>
		   for(i=0;i<300;i++){
 8002808:	4f23      	ldr	r7, [pc, #140]	; (8002898 <main+0xe4>)
   if (HAL_GPIO_ReadPin(Button_GPIO_Port, Button_Pin) == GPIO_PIN_SET) {
 800280a:	4820      	ldr	r0, [pc, #128]	; (800288c <main+0xd8>)
 800280c:	2101      	movs	r1, #1
 800280e:	f7fe f875 	bl	80008fc <HAL_GPIO_ReadPin>
 8002812:	2801      	cmp	r0, #1
 8002814:	4680      	mov	r8, r0
 8002816:	d126      	bne.n	8002866 <main+0xb2>
	   HAL_Delay(100);
 8002818:	2064      	movs	r0, #100	; 0x64
 800281a:	f7fd ff01 	bl	8000620 <HAL_Delay>
	   if (HAL_GPIO_ReadPin(Button_GPIO_Port, Button_Pin) == GPIO_PIN_SET) {
 800281e:	4641      	mov	r1, r8
 8002820:	481a      	ldr	r0, [pc, #104]	; (800288c <main+0xd8>)
 8002822:	f7fe f86b 	bl	80008fc <HAL_GPIO_ReadPin>
 8002826:	2801      	cmp	r0, #1
 8002828:	d11d      	bne.n	8002866 <main+0xb2>
		   ++MessageCounter;
 800282a:	4b1c      	ldr	r3, [pc, #112]	; (800289c <main+0xe8>)
		   MessageLength = sprintf(DataToSend, "Message No. %d\n", MessageCounter);
 800282c:	491c      	ldr	r1, [pc, #112]	; (80028a0 <main+0xec>)
		   ++MessageCounter;
 800282e:	781a      	ldrb	r2, [r3, #0]
		   MessageLength = sprintf(DataToSend, "Message No. %d\n", MessageCounter);
 8002830:	481c      	ldr	r0, [pc, #112]	; (80028a4 <main+0xf0>)
		   ++MessageCounter;
 8002832:	3201      	adds	r2, #1
 8002834:	b2d2      	uxtb	r2, r2
 8002836:	701a      	strb	r2, [r3, #0]
		   MessageLength = sprintf(DataToSend, "Message No. %d\n", MessageCounter);
 8002838:	f000 fbc6 	bl	8002fc8 <siprintf>
 800283c:	4b1a      	ldr	r3, [pc, #104]	; (80028a8 <main+0xf4>)
 800283e:	b2c1      	uxtb	r1, r0
		   CDC_Transmit_FS(DataToSend, MessageLength);
 8002840:	4818      	ldr	r0, [pc, #96]	; (80028a4 <main+0xf0>)
		   MessageLength = sprintf(DataToSend, "Message No. %d\n", MessageCounter);
 8002842:	7019      	strb	r1, [r3, #0]
		   CDC_Transmit_FS(DataToSend, MessageLength);
 8002844:	f000 f8f4 	bl	8002a30 <CDC_Transmit_FS>
 8002848:	462b      	mov	r3, r5
			   buff[i]=*(char*)(fileaddr+dataoffset+i);
 800284a:	7859      	ldrb	r1, [r3, #1]
 800284c:	199a      	adds	r2, r3, r6
 800284e:	3301      	adds	r3, #1
		   for(i=0;i<300;i++){
 8002850:	42bb      	cmp	r3, r7
			   buff[i]=*(char*)(fileaddr+dataoffset+i);
 8002852:	54a1      	strb	r1, [r4, r2]
		   for(i=0;i<300;i++){
 8002854:	d1f9      	bne.n	800284a <main+0x96>
		   buff[300]='\n';
 8002856:	230a      	movs	r3, #10
		   CDC_Transmit_FS(buff, 301);
 8002858:	f240 112d 	movw	r1, #301	; 0x12d
 800285c:	4620      	mov	r0, r4
		   buff[300]='\n';
 800285e:	f884 312c 	strb.w	r3, [r4, #300]	; 0x12c
		   CDC_Transmit_FS(buff, 301);
 8002862:	f000 f8e5 	bl	8002a30 <CDC_Transmit_FS>
   if(ReceivedDataFlag == 1){
 8002866:	4b11      	ldr	r3, [pc, #68]	; (80028ac <main+0xf8>)
 8002868:	781a      	ldrb	r2, [r3, #0]
 800286a:	2a01      	cmp	r2, #1
 800286c:	d1cd      	bne.n	800280a <main+0x56>
      ReceivedDataFlag = 0;
 800286e:	2200      	movs	r2, #0
      ReceivedData[4]='\n';
 8002870:	4f0f      	ldr	r7, [pc, #60]	; (80028b0 <main+0xfc>)
      ReceivedDataFlag = 0;
 8002872:	701a      	strb	r2, [r3, #0]
      ReceivedData[4]='\n';
 8002874:	230a      	movs	r3, #10
 8002876:	713b      	strb	r3, [r7, #4]
      while(CDC_Transmit_FS(ReceivedData, 5)==USBD_BUSY);
 8002878:	2105      	movs	r1, #5
 800287a:	4638      	mov	r0, r7
 800287c:	f000 f8d8 	bl	8002a30 <CDC_Transmit_FS>
 8002880:	2801      	cmp	r0, #1
 8002882:	d0f9      	beq.n	8002878 <main+0xc4>
 8002884:	e7c0      	b.n	8002808 <main+0x54>
 8002886:	bf00      	nop
 8002888:	40023800 	.word	0x40023800
 800288c:	40020000 	.word	0x40020000
 8002890:	0801005d 	.word	0x0801005d
 8002894:	f7feffa3 	.word	0xf7feffa3
 8002898:	08010189 	.word	0x08010189
 800289c:	200001e2 	.word	0x200001e2
 80028a0:	080036bc 	.word	0x080036bc
 80028a4:	200001f8 	.word	0x200001f8
 80028a8:	200001e3 	.word	0x200001e3
 80028ac:	200001e4 	.word	0x200001e4
 80028b0:	20000220 	.word	0x20000220

080028b4 <_Error_Handler>:
  * @param  file: The file name as string.
  * @param  line: The line in file as a number.
  * @retval None
  */
void _Error_Handler(char *file, int line)
{
 80028b4:	e7fe      	b.n	80028b4 <_Error_Handler>

080028b6 <HAL_MspInit>:
 80028b6:	b508      	push	{r3, lr}
 80028b8:	2003      	movs	r0, #3
 80028ba:	f7fd fec5 	bl	8000648 <HAL_NVIC_SetPriorityGrouping>
 80028be:	2200      	movs	r2, #0
 80028c0:	4611      	mov	r1, r2
 80028c2:	f06f 000b 	mvn.w	r0, #11
 80028c6:	f7fd fed1 	bl	800066c <HAL_NVIC_SetPriority>
 80028ca:	2200      	movs	r2, #0
 80028cc:	4611      	mov	r1, r2
 80028ce:	f06f 000a 	mvn.w	r0, #10
 80028d2:	f7fd fecb 	bl	800066c <HAL_NVIC_SetPriority>
 80028d6:	2200      	movs	r2, #0
 80028d8:	4611      	mov	r1, r2
 80028da:	f06f 0009 	mvn.w	r0, #9
 80028de:	f7fd fec5 	bl	800066c <HAL_NVIC_SetPriority>
 80028e2:	2200      	movs	r2, #0
 80028e4:	4611      	mov	r1, r2
 80028e6:	f06f 0004 	mvn.w	r0, #4
 80028ea:	f7fd febf 	bl	800066c <HAL_NVIC_SetPriority>
 80028ee:	2200      	movs	r2, #0
 80028f0:	4611      	mov	r1, r2
 80028f2:	f06f 0003 	mvn.w	r0, #3
 80028f6:	f7fd feb9 	bl	800066c <HAL_NVIC_SetPriority>
 80028fa:	2200      	movs	r2, #0
 80028fc:	4611      	mov	r1, r2
 80028fe:	f06f 0001 	mvn.w	r0, #1
 8002902:	f7fd feb3 	bl	800066c <HAL_NVIC_SetPriority>
 8002906:	2200      	movs	r2, #0
 8002908:	4611      	mov	r1, r2
 800290a:	f04f 30ff 	mov.w	r0, #4294967295
 800290e:	e8bd 4008 	ldmia.w	sp!, {r3, lr}
 8002912:	f7fd beab 	b.w	800066c <HAL_NVIC_SetPriority>

08002916 <NMI_Handler>:
 8002916:	4770      	bx	lr

08002918 <HardFault_Handler>:
 8002918:	e7fe      	b.n	8002918 <HardFault_Handler>

0800291a <MemManage_Handler>:
 800291a:	e7fe      	b.n	800291a <MemManage_Handler>

0800291c <BusFault_Handler>:
 800291c:	e7fe      	b.n	800291c <BusFault_Handler>

0800291e <UsageFault_Handler>:
 800291e:	e7fe      	b.n	800291e <UsageFault_Handler>

08002920 <SVC_Handler>:
 8002920:	4770      	bx	lr

08002922 <DebugMon_Handler>:
 8002922:	4770      	bx	lr

08002924 <PendSV_Handler>:
 8002924:	4770      	bx	lr

08002926 <SysTick_Handler>:
 8002926:	b508      	push	{r3, lr}
 8002928:	f7fd fe68 	bl	80005fc <HAL_IncTick>
 800292c:	e8bd 4008 	ldmia.w	sp!, {r3, lr}
 8002930:	f7fd beff 	b.w	8000732 <HAL_SYSTICK_IRQHandler>

08002934 <OTG_FS_IRQHandler>:
 8002934:	4801      	ldr	r0, [pc, #4]	; (800293c <OTG_FS_IRQHandler+0x8>)
 8002936:	f7fe b869 	b.w	8000a0c <HAL_PCD_IRQHandler>
 800293a:	bf00      	nop
 800293c:	2000144c 	.word	0x2000144c

08002940 <SystemInit>:
 8002940:	490f      	ldr	r1, [pc, #60]	; (8002980 <SystemInit+0x40>)
 8002942:	f8d1 3088 	ldr.w	r3, [r1, #136]	; 0x88
 8002946:	f443 0370 	orr.w	r3, r3, #15728640	; 0xf00000
 800294a:	f8c1 3088 	str.w	r3, [r1, #136]	; 0x88
 800294e:	4b0d      	ldr	r3, [pc, #52]	; (8002984 <SystemInit+0x44>)
 8002950:	681a      	ldr	r2, [r3, #0]
 8002952:	2000      	movs	r0, #0
 8002954:	f042 0201 	orr.w	r2, r2, #1
 8002958:	601a      	str	r2, [r3, #0]
 800295a:	6098      	str	r0, [r3, #8]
 800295c:	681a      	ldr	r2, [r3, #0]
 800295e:	f022 7284 	bic.w	r2, r2, #17301504	; 0x1080000
 8002962:	f422 3280 	bic.w	r2, r2, #65536	; 0x10000
 8002966:	601a      	str	r2, [r3, #0]
 8002968:	4a07      	ldr	r2, [pc, #28]	; (8002988 <SystemInit+0x48>)
 800296a:	605a      	str	r2, [r3, #4]
 800296c:	681a      	ldr	r2, [r3, #0]
 800296e:	f422 2280 	bic.w	r2, r2, #262144	; 0x40000
 8002972:	601a      	str	r2, [r3, #0]
 8002974:	60d8      	str	r0, [r3, #12]
 8002976:	f04f 6300 	mov.w	r3, #134217728	; 0x8000000
 800297a:	608b      	str	r3, [r1, #8]
 800297c:	4770      	bx	lr
 800297e:	bf00      	nop
 8002980:	e000ed00 	.word	0xe000ed00
 8002984:	40023800 	.word	0x40023800
 8002988:	24003010 	.word	0x24003010

0800298c <MX_USB_DEVICE_Init>:
 800298c:	b510      	push	{r4, lr}
 800298e:	4c09      	ldr	r4, [pc, #36]	; (80029b4 <MX_USB_DEVICE_Init+0x28>)
 8002990:	4909      	ldr	r1, [pc, #36]	; (80029b8 <MX_USB_DEVICE_Init+0x2c>)
 8002992:	2200      	movs	r2, #0
 8002994:	4620      	mov	r0, r4
 8002996:	f7ff fb95 	bl	80020c4 <USBD_Init>
 800299a:	4908      	ldr	r1, [pc, #32]	; (80029bc <MX_USB_DEVICE_Init+0x30>)
 800299c:	4620      	mov	r0, r4
 800299e:	f7ff fba6 	bl	80020ee <USBD_RegisterClass>
 80029a2:	4620      	mov	r0, r4
 80029a4:	4906      	ldr	r1, [pc, #24]	; (80029c0 <MX_USB_DEVICE_Init+0x34>)
 80029a6:	f7ff fb4e 	bl	8002046 <USBD_CDC_RegisterInterface>
 80029aa:	4620      	mov	r0, r4
 80029ac:	e8bd 4010 	ldmia.w	sp!, {r4, lr}
 80029b0:	f7ff bba4 	b.w	80020fc <USBD_Start>
 80029b4:	20000228 	.word	0x20000228
 80029b8:	2000012c 	.word	0x2000012c
 80029bc:	20000008 	.word	0x20000008
 80029c0:	2000011c 	.word	0x2000011c

080029c4 <CDC_DeInit_FS>:
static int8_t CDC_DeInit_FS(void)
{
  /* USER CODE BEGIN 4 */
  return (USBD_OK);
  /* USER CODE END 4 */
}
 80029c4:	2000      	movs	r0, #0
 80029c6:	4770      	bx	lr

080029c8 <CDC_Control_FS>:
    break;
  }

  return (USBD_OK);
  /* USER CODE END 5 */
}
 80029c8:	2000      	movs	r0, #0
 80029ca:	4770      	bx	lr

080029cc <CDC_Receive_FS>:
  * @param  Buf: Buffer of data to be received
  * @param  Len: Number of data received (in bytes)
  * @retval Result of the operation: USBD_OK if all operations are OK else USBD_FAIL
  */
static int8_t CDC_Receive_FS(uint8_t* Buf, uint32_t *Len)
{
 80029cc:	b538      	push	{r3, r4, r5, lr}
  /* USER CODE BEGIN 6 */
  USBD_CDC_SetRxBuffer(&hUsbDeviceFS, &Buf[0]);
 80029ce:	4d0b      	ldr	r5, [pc, #44]	; (80029fc <CDC_Receive_FS+0x30>)
 80029d0:	4601      	mov	r1, r0
{
 80029d2:	4604      	mov	r4, r0
  USBD_CDC_SetRxBuffer(&hUsbDeviceFS, &Buf[0]);
 80029d4:	4628      	mov	r0, r5
 80029d6:	f7ff fb45 	bl	8002064 <USBD_CDC_SetRxBuffer>
  USBD_CDC_ReceivePacket(&hUsbDeviceFS);
 80029da:	4628      	mov	r0, r5
 80029dc:	f7ff fb5f 	bl	800209e <USBD_CDC_ReceivePacket>
    extern uint8_t ReceivedDataFlag; // Flaga informujaca o odebraniu danych

    // Wyczyszczenie tablicy odebranych danych
    uint8_t iter;
    for(iter = 0; iter<5; ++iter){
     ReceivedData[iter] = 0;
 80029e0:	4b07      	ldr	r3, [pc, #28]	; (8002a00 <CDC_Receive_FS+0x34>)
 80029e2:	2000      	movs	r0, #0
 80029e4:	7018      	strb	r0, [r3, #0]
 80029e6:	7058      	strb	r0, [r3, #1]
 80029e8:	7098      	strb	r0, [r3, #2]
 80029ea:	70d8      	strb	r0, [r3, #3]
 80029ec:	7118      	strb	r0, [r3, #4]
    }

    memcpy(ReceivedData, Buf, 4); // Przekopiowanie danych do naszej tablicy
 80029ee:	6822      	ldr	r2, [r4, #0]
 80029f0:	601a      	str	r2, [r3, #0]
    ReceivedDataFlag = 1; // Ustawienie flagi odebrania danych
 80029f2:	4b04      	ldr	r3, [pc, #16]	; (8002a04 <CDC_Receive_FS+0x38>)
 80029f4:	2201      	movs	r2, #1
 80029f6:	701a      	strb	r2, [r3, #0]


  return (USBD_OK);
  /* USER CODE END 6 */
}
 80029f8:	bd38      	pop	{r3, r4, r5, pc}
 80029fa:	bf00      	nop
 80029fc:	20000228 	.word	0x20000228
 8002a00:	20000220 	.word	0x20000220
 8002a04:	200001e4 	.word	0x200001e4

08002a08 <CDC_Init_FS>:
{
 8002a08:	b510      	push	{r4, lr}
  USBD_CDC_SetTxBuffer(&hUsbDeviceFS, UserTxBufferFS, 0);
 8002a0a:	4c06      	ldr	r4, [pc, #24]	; (8002a24 <CDC_Init_FS+0x1c>)
 8002a0c:	4906      	ldr	r1, [pc, #24]	; (8002a28 <CDC_Init_FS+0x20>)
 8002a0e:	2200      	movs	r2, #0
 8002a10:	4620      	mov	r0, r4
 8002a12:	f7ff fb1f 	bl	8002054 <USBD_CDC_SetTxBuffer>
  USBD_CDC_SetRxBuffer(&hUsbDeviceFS, UserRxBufferFS);
 8002a16:	4905      	ldr	r1, [pc, #20]	; (8002a2c <CDC_Init_FS+0x24>)
 8002a18:	4620      	mov	r0, r4
 8002a1a:	f7ff fb23 	bl	8002064 <USBD_CDC_SetRxBuffer>
}
 8002a1e:	2000      	movs	r0, #0
 8002a20:	bd10      	pop	{r4, pc}
 8002a22:	bf00      	nop
 8002a24:	20000228 	.word	0x20000228
 8002a28:	20000c4c 	.word	0x20000c4c
 8002a2c:	2000044c 	.word	0x2000044c

08002a30 <CDC_Transmit_FS>:
  * @param  Buf: Buffer of data to be sent
  * @param  Len: Number of data to be sent (in bytes)
  * @retval USBD_OK if all operations are OK else USBD_FAIL or USBD_BUSY
  */
uint8_t CDC_Transmit_FS(uint8_t* Buf, uint16_t Len)
{
 8002a30:	b510      	push	{r4, lr}
  uint8_t result = USBD_OK;
  /* USER CODE BEGIN 7 */
  USBD_CDC_HandleTypeDef *hcdc = (USBD_CDC_HandleTypeDef*)hUsbDeviceFS.pClassData;
 8002a32:	4c09      	ldr	r4, [pc, #36]	; (8002a58 <CDC_Transmit_FS+0x28>)
 8002a34:	f8d4 3218 	ldr.w	r3, [r4, #536]	; 0x218
  if (hcdc->TxState != 0){
 8002a38:	f8d3 3214 	ldr.w	r3, [r3, #532]	; 0x214
{
 8002a3c:	460a      	mov	r2, r1
  if (hcdc->TxState != 0){
 8002a3e:	b943      	cbnz	r3, 8002a52 <CDC_Transmit_FS+0x22>
    return USBD_BUSY;
  }
  USBD_CDC_SetTxBuffer(&hUsbDeviceFS, Buf, Len);
 8002a40:	4601      	mov	r1, r0
 8002a42:	4620      	mov	r0, r4
 8002a44:	f7ff fb06 	bl	8002054 <USBD_CDC_SetTxBuffer>
  result = USBD_CDC_TransmitPacket(&hUsbDeviceFS);
 8002a48:	4620      	mov	r0, r4
  /* USER CODE END 7 */
  return result;
}
 8002a4a:	e8bd 4010 	ldmia.w	sp!, {r4, lr}
  result = USBD_CDC_TransmitPacket(&hUsbDeviceFS);
 8002a4e:	f7ff bb0f 	b.w	8002070 <USBD_CDC_TransmitPacket>
}
 8002a52:	2001      	movs	r0, #1
 8002a54:	bd10      	pop	{r4, pc}
 8002a56:	bf00      	nop
 8002a58:	20000228 	.word	0x20000228

08002a5c <HAL_PCD_MspInit>:
 8002a5c:	b510      	push	{r4, lr}
 8002a5e:	6803      	ldr	r3, [r0, #0]
 8002a60:	f1b3 4fa0 	cmp.w	r3, #1342177280	; 0x50000000
 8002a64:	b086      	sub	sp, #24
 8002a66:	d125      	bne.n	8002ab4 <HAL_PCD_MspInit+0x58>
 8002a68:	f44f 53c0 	mov.w	r3, #6144	; 0x1800
 8002a6c:	9301      	str	r3, [sp, #4]
 8002a6e:	2302      	movs	r3, #2
 8002a70:	9302      	str	r3, [sp, #8]
 8002a72:	2303      	movs	r3, #3
 8002a74:	2400      	movs	r4, #0
 8002a76:	9304      	str	r3, [sp, #16]
 8002a78:	a901      	add	r1, sp, #4
 8002a7a:	230a      	movs	r3, #10
 8002a7c:	480e      	ldr	r0, [pc, #56]	; (8002ab8 <HAL_PCD_MspInit+0x5c>)
 8002a7e:	9305      	str	r3, [sp, #20]
 8002a80:	9403      	str	r4, [sp, #12]
 8002a82:	f7fd fe5b 	bl	800073c <HAL_GPIO_Init>
 8002a86:	4b0d      	ldr	r3, [pc, #52]	; (8002abc <HAL_PCD_MspInit+0x60>)
 8002a88:	6b5a      	ldr	r2, [r3, #52]	; 0x34
 8002a8a:	f042 0280 	orr.w	r2, r2, #128	; 0x80
 8002a8e:	635a      	str	r2, [r3, #52]	; 0x34
 8002a90:	9400      	str	r4, [sp, #0]
 8002a92:	6c5a      	ldr	r2, [r3, #68]	; 0x44
 8002a94:	f442 4280 	orr.w	r2, r2, #16384	; 0x4000
 8002a98:	645a      	str	r2, [r3, #68]	; 0x44
 8002a9a:	6c5b      	ldr	r3, [r3, #68]	; 0x44
 8002a9c:	f403 4380 	and.w	r3, r3, #16384	; 0x4000
 8002aa0:	9300      	str	r3, [sp, #0]
 8002aa2:	2043      	movs	r0, #67	; 0x43
 8002aa4:	4622      	mov	r2, r4
 8002aa6:	4621      	mov	r1, r4
 8002aa8:	9b00      	ldr	r3, [sp, #0]
 8002aaa:	f7fd fddf 	bl	800066c <HAL_NVIC_SetPriority>
 8002aae:	2043      	movs	r0, #67	; 0x43
 8002ab0:	f7fd fe10 	bl	80006d4 <HAL_NVIC_EnableIRQ>
 8002ab4:	b006      	add	sp, #24
 8002ab6:	bd10      	pop	{r4, pc}
 8002ab8:	40020000 	.word	0x40020000
 8002abc:	40023800 	.word	0x40023800

08002ac0 <HAL_PCD_SetupStageCallback>:
 8002ac0:	f500 716f 	add.w	r1, r0, #956	; 0x3bc
 8002ac4:	f8d0 03ec 	ldr.w	r0, [r0, #1004]	; 0x3ec
 8002ac8:	f7ff bb2f 	b.w	800212a <USBD_LL_SetupStage>

08002acc <HAL_PCD_DataOutStageCallback>:
 8002acc:	231c      	movs	r3, #28
 8002ace:	fb03 0301 	mla	r3, r3, r1, r0
 8002ad2:	f8d0 03ec 	ldr.w	r0, [r0, #1004]	; 0x3ec
 8002ad6:	f8d3 2204 	ldr.w	r2, [r3, #516]	; 0x204
 8002ada:	f7ff bb53 	b.w	8002184 <USBD_LL_DataOutStage>

08002ade <HAL_PCD_DataInStageCallback>:
 8002ade:	231c      	movs	r3, #28
 8002ae0:	fb03 0301 	mla	r3, r3, r1, r0
 8002ae4:	f8d0 03ec 	ldr.w	r0, [r0, #1004]	; 0x3ec
 8002ae8:	6c5a      	ldr	r2, [r3, #68]	; 0x44
 8002aea:	f7ff bb7d 	b.w	80021e8 <USBD_LL_DataInStage>

08002aee <HAL_PCD_SOFCallback>:
 8002aee:	f8d0 03ec 	ldr.w	r0, [r0, #1004]	; 0x3ec
 8002af2:	f7ff bbf9 	b.w	80022e8 <USBD_LL_SOF>

08002af6 <HAL_PCD_ResetCallback>:
 8002af6:	b510      	push	{r4, lr}
 8002af8:	68c1      	ldr	r1, [r0, #12]
 8002afa:	4604      	mov	r4, r0
 8002afc:	3100      	adds	r1, #0
 8002afe:	bf18      	it	ne
 8002b00:	2101      	movne	r1, #1
 8002b02:	f8d0 03ec 	ldr.w	r0, [r0, #1004]	; 0x3ec
 8002b06:	f7ff fbdd 	bl	80022c4 <USBD_LL_SetSpeed>
 8002b0a:	f8d4 03ec 	ldr.w	r0, [r4, #1004]	; 0x3ec
 8002b0e:	e8bd 4010 	ldmia.w	sp!, {r4, lr}
 8002b12:	f7ff bbb8 	b.w	8002286 <USBD_LL_Reset>
	...

08002b18 <HAL_PCD_SuspendCallback>:
 8002b18:	b510      	push	{r4, lr}
 8002b1a:	4604      	mov	r4, r0
 8002b1c:	f8d0 03ec 	ldr.w	r0, [r0, #1004]	; 0x3ec
 8002b20:	f7ff fbd3 	bl	80022ca <USBD_LL_Suspend>
 8002b24:	6822      	ldr	r2, [r4, #0]
 8002b26:	f8d2 3e00 	ldr.w	r3, [r2, #3584]	; 0xe00
 8002b2a:	f043 0301 	orr.w	r3, r3, #1
 8002b2e:	f8c2 3e00 	str.w	r3, [r2, #3584]	; 0xe00
 8002b32:	6a23      	ldr	r3, [r4, #32]
 8002b34:	b123      	cbz	r3, 8002b40 <HAL_PCD_SuspendCallback+0x28>
 8002b36:	4a03      	ldr	r2, [pc, #12]	; (8002b44 <HAL_PCD_SuspendCallback+0x2c>)
 8002b38:	6913      	ldr	r3, [r2, #16]
 8002b3a:	f043 0306 	orr.w	r3, r3, #6
 8002b3e:	6113      	str	r3, [r2, #16]
 8002b40:	bd10      	pop	{r4, pc}
 8002b42:	bf00      	nop
 8002b44:	e000ed00 	.word	0xe000ed00

08002b48 <HAL_PCD_ResumeCallback>:
 8002b48:	f8d0 03ec 	ldr.w	r0, [r0, #1004]	; 0x3ec
 8002b4c:	f7ff bbc6 	b.w	80022dc <USBD_LL_Resume>

08002b50 <HAL_PCD_ISOOUTIncompleteCallback>:
 8002b50:	f8d0 03ec 	ldr.w	r0, [r0, #1004]	; 0x3ec
 8002b54:	f7ff bbd6 	b.w	8002304 <USBD_LL_IsoOUTIncomplete>

08002b58 <HAL_PCD_ISOINIncompleteCallback>:
 8002b58:	f8d0 03ec 	ldr.w	r0, [r0, #1004]	; 0x3ec
 8002b5c:	f7ff bbd0 	b.w	8002300 <USBD_LL_IsoINIncomplete>

08002b60 <HAL_PCD_ConnectCallback>:
 8002b60:	f8d0 03ec 	ldr.w	r0, [r0, #1004]	; 0x3ec
 8002b64:	f7ff bbd0 	b.w	8002308 <USBD_LL_DevConnected>

08002b68 <HAL_PCD_DisconnectCallback>:
 8002b68:	f8d0 03ec 	ldr.w	r0, [r0, #1004]	; 0x3ec
 8002b6c:	f7ff bbce 	b.w	800230c <USBD_LL_DevDisconnected>

08002b70 <USBD_LL_Init>:
 8002b70:	b508      	push	{r3, lr}
 8002b72:	7802      	ldrb	r2, [r0, #0]
 8002b74:	bb52      	cbnz	r2, 8002bcc <USBD_LL_Init+0x5c>
 8002b76:	4b16      	ldr	r3, [pc, #88]	; (8002bd0 <USBD_LL_Init+0x60>)
 8002b78:	2104      	movs	r1, #4
 8002b7a:	f8c3 03ec 	str.w	r0, [r3, #1004]	; 0x3ec
 8002b7e:	f8c0 3220 	str.w	r3, [r0, #544]	; 0x220
 8002b82:	f04f 40a0 	mov.w	r0, #1342177280	; 0x50000000
 8002b86:	e883 0003 	stmia.w	r3, {r0, r1}
 8002b8a:	2102      	movs	r1, #2
 8002b8c:	4618      	mov	r0, r3
 8002b8e:	60d9      	str	r1, [r3, #12]
 8002b90:	611a      	str	r2, [r3, #16]
 8002b92:	615a      	str	r2, [r3, #20]
 8002b94:	6199      	str	r1, [r3, #24]
 8002b96:	61da      	str	r2, [r3, #28]
 8002b98:	621a      	str	r2, [r3, #32]
 8002b9a:	625a      	str	r2, [r3, #36]	; 0x24
 8002b9c:	62da      	str	r2, [r3, #44]	; 0x2c
 8002b9e:	631a      	str	r2, [r3, #48]	; 0x30
 8002ba0:	f7fd feb2 	bl	8000908 <HAL_PCD_Init>
 8002ba4:	b120      	cbz	r0, 8002bb0 <USBD_LL_Init+0x40>
 8002ba6:	f44f 71a5 	mov.w	r1, #330	; 0x14a
 8002baa:	480a      	ldr	r0, [pc, #40]	; (8002bd4 <USBD_LL_Init+0x64>)
 8002bac:	f7ff fe82 	bl	80028b4 <_Error_Handler>
 8002bb0:	2180      	movs	r1, #128	; 0x80
 8002bb2:	4807      	ldr	r0, [pc, #28]	; (8002bd0 <USBD_LL_Init+0x60>)
 8002bb4:	f7fe faf7 	bl	80011a6 <HAL_PCDEx_SetRxFiFo>
 8002bb8:	2240      	movs	r2, #64	; 0x40
 8002bba:	2100      	movs	r1, #0
 8002bbc:	4804      	ldr	r0, [pc, #16]	; (8002bd0 <USBD_LL_Init+0x60>)
 8002bbe:	f7fe fad1 	bl	8001164 <HAL_PCDEx_SetTxFiFo>
 8002bc2:	2280      	movs	r2, #128	; 0x80
 8002bc4:	2101      	movs	r1, #1
 8002bc6:	4802      	ldr	r0, [pc, #8]	; (8002bd0 <USBD_LL_Init+0x60>)
 8002bc8:	f7fe facc 	bl	8001164 <HAL_PCDEx_SetTxFiFo>
 8002bcc:	2000      	movs	r0, #0
 8002bce:	bd08      	pop	{r3, pc}
 8002bd0:	2000144c 	.word	0x2000144c
 8002bd4:	080036e0 	.word	0x080036e0

08002bd8 <USBD_LL_Start>:
 8002bd8:	b508      	push	{r3, lr}
 8002bda:	f8d0 0220 	ldr.w	r0, [r0, #544]	; 0x220
 8002bde:	f7fd feff 	bl	80009e0 <HAL_PCD_Start>
 8002be2:	2803      	cmp	r0, #3
 8002be4:	bf9a      	itte	ls
 8002be6:	4b02      	ldrls	r3, [pc, #8]	; (8002bf0 <USBD_LL_Start+0x18>)
 8002be8:	5c18      	ldrbls	r0, [r3, r0]
 8002bea:	2002      	movhi	r0, #2
 8002bec:	bd08      	pop	{r3, pc}
 8002bee:	bf00      	nop
 8002bf0:	080036dc 	.word	0x080036dc

08002bf4 <USBD_LL_OpenEP>:
 8002bf4:	b510      	push	{r4, lr}
 8002bf6:	461c      	mov	r4, r3
 8002bf8:	f8d0 0220 	ldr.w	r0, [r0, #544]	; 0x220
 8002bfc:	4613      	mov	r3, r2
 8002bfe:	4622      	mov	r2, r4
 8002c00:	f7fe f9c2 	bl	8000f88 <HAL_PCD_EP_Open>
 8002c04:	2803      	cmp	r0, #3
 8002c06:	bf9a      	itte	ls
 8002c08:	4b01      	ldrls	r3, [pc, #4]	; (8002c10 <USBD_LL_OpenEP+0x1c>)
 8002c0a:	5c18      	ldrbls	r0, [r3, r0]
 8002c0c:	2002      	movhi	r0, #2
 8002c0e:	bd10      	pop	{r4, pc}
 8002c10:	080036dc 	.word	0x080036dc

08002c14 <USBD_LL_CloseEP>:
 8002c14:	b508      	push	{r3, lr}
 8002c16:	f8d0 0220 	ldr.w	r0, [r0, #544]	; 0x220
 8002c1a:	f7fe f9e3 	bl	8000fe4 <HAL_PCD_EP_Close>
 8002c1e:	2803      	cmp	r0, #3
 8002c20:	bf9a      	itte	ls
 8002c22:	4b02      	ldrls	r3, [pc, #8]	; (8002c2c <USBD_LL_CloseEP+0x18>)
 8002c24:	5c18      	ldrbls	r0, [r3, r0]
 8002c26:	2002      	movhi	r0, #2
 8002c28:	bd08      	pop	{r3, pc}
 8002c2a:	bf00      	nop
 8002c2c:	080036dc 	.word	0x080036dc

08002c30 <USBD_LL_StallEP>:
 8002c30:	b508      	push	{r3, lr}
 8002c32:	f8d0 0220 	ldr.w	r0, [r0, #544]	; 0x220
 8002c36:	f7fe fa44 	bl	80010c2 <HAL_PCD_EP_SetStall>
 8002c3a:	2803      	cmp	r0, #3
 8002c3c:	bf9a      	itte	ls
 8002c3e:	4b02      	ldrls	r3, [pc, #8]	; (8002c48 <USBD_LL_StallEP+0x18>)
 8002c40:	5c18      	ldrbls	r0, [r3, r0]
 8002c42:	2002      	movhi	r0, #2
 8002c44:	bd08      	pop	{r3, pc}
 8002c46:	bf00      	nop
 8002c48:	080036dc 	.word	0x080036dc

08002c4c <USBD_LL_ClearStallEP>:
 8002c4c:	b508      	push	{r3, lr}
 8002c4e:	f8d0 0220 	ldr.w	r0, [r0, #544]	; 0x220
 8002c52:	f7fe fa62 	bl	800111a <HAL_PCD_EP_ClrStall>
 8002c56:	2803      	cmp	r0, #3
 8002c58:	bf9a      	itte	ls
 8002c5a:	4b02      	ldrls	r3, [pc, #8]	; (8002c64 <USBD_LL_ClearStallEP+0x18>)
 8002c5c:	5c18      	ldrbls	r0, [r3, r0]
 8002c5e:	2002      	movhi	r0, #2
 8002c60:	bd08      	pop	{r3, pc}
 8002c62:	bf00      	nop
 8002c64:	080036dc 	.word	0x080036dc

08002c68 <USBD_LL_IsStallEP>:
 8002c68:	f011 0f80 	tst.w	r1, #128	; 0x80
 8002c6c:	f8d0 3220 	ldr.w	r3, [r0, #544]	; 0x220
 8002c70:	f04f 021c 	mov.w	r2, #28
 8002c74:	bf1b      	ittet	ne
 8002c76:	f001 017f 	andne.w	r1, r1, #127	; 0x7f
 8002c7a:	fb02 3101 	mlane	r1, r2, r1, r3
 8002c7e:	fb02 3101 	mlaeq	r1, r2, r1, r3
 8002c82:	f891 003a 	ldrbne.w	r0, [r1, #58]	; 0x3a
 8002c86:	bf08      	it	eq
 8002c88:	f891 01fa 	ldrbeq.w	r0, [r1, #506]	; 0x1fa
 8002c8c:	4770      	bx	lr
	...

08002c90 <USBD_LL_SetUSBAddress>:
 8002c90:	b508      	push	{r3, lr}
 8002c92:	f8d0 0220 	ldr.w	r0, [r0, #544]	; 0x220
 8002c96:	f7fe f965 	bl	8000f64 <HAL_PCD_SetAddress>
 8002c9a:	2803      	cmp	r0, #3
 8002c9c:	bf9a      	itte	ls
 8002c9e:	4b02      	ldrls	r3, [pc, #8]	; (8002ca8 <USBD_LL_SetUSBAddress+0x18>)
 8002ca0:	5c18      	ldrbls	r0, [r3, r0]
 8002ca2:	2002      	movhi	r0, #2
 8002ca4:	bd08      	pop	{r3, pc}
 8002ca6:	bf00      	nop
 8002ca8:	080036dc 	.word	0x080036dc

08002cac <USBD_LL_Transmit>:
 8002cac:	b508      	push	{r3, lr}
 8002cae:	f8d0 0220 	ldr.w	r0, [r0, #544]	; 0x220
 8002cb2:	f7fe f9e6 	bl	8001082 <HAL_PCD_EP_Transmit>
 8002cb6:	2803      	cmp	r0, #3
 8002cb8:	bf9a      	itte	ls
 8002cba:	4b02      	ldrls	r3, [pc, #8]	; (8002cc4 <USBD_LL_Transmit+0x18>)
 8002cbc:	5c18      	ldrbls	r0, [r3, r0]
 8002cbe:	2002      	movhi	r0, #2
 8002cc0:	bd08      	pop	{r3, pc}
 8002cc2:	bf00      	nop
 8002cc4:	080036dc 	.word	0x080036dc

08002cc8 <USBD_LL_PrepareReceive>:
 8002cc8:	b508      	push	{r3, lr}
 8002cca:	f8d0 0220 	ldr.w	r0, [r0, #544]	; 0x220
 8002cce:	f7fe f9ac 	bl	800102a <HAL_PCD_EP_Receive>
 8002cd2:	2803      	cmp	r0, #3
 8002cd4:	bf9a      	itte	ls
 8002cd6:	4b02      	ldrls	r3, [pc, #8]	; (8002ce0 <USBD_LL_PrepareReceive+0x18>)
 8002cd8:	5c18      	ldrbls	r0, [r3, r0]
 8002cda:	2002      	movhi	r0, #2
 8002cdc:	bd08      	pop	{r3, pc}
 8002cde:	bf00      	nop
 8002ce0:	080036dc 	.word	0x080036dc

08002ce4 <USBD_LL_GetRxDataSize>:
 8002ce4:	b508      	push	{r3, lr}
 8002ce6:	f8d0 0220 	ldr.w	r0, [r0, #544]	; 0x220
 8002cea:	f7fe f9c2 	bl	8001072 <HAL_PCD_EP_GetRxCount>
 8002cee:	bd08      	pop	{r3, pc}

08002cf0 <USBD_FS_DeviceDescriptor>:
 8002cf0:	2312      	movs	r3, #18
 8002cf2:	800b      	strh	r3, [r1, #0]
 8002cf4:	4800      	ldr	r0, [pc, #0]	; (8002cf8 <USBD_FS_DeviceDescriptor+0x8>)
 8002cf6:	4770      	bx	lr
 8002cf8:	20000148 	.word	0x20000148

08002cfc <USBD_FS_LangIDStrDescriptor>:
 8002cfc:	2304      	movs	r3, #4
 8002cfe:	800b      	strh	r3, [r1, #0]
 8002d00:	4800      	ldr	r0, [pc, #0]	; (8002d04 <USBD_FS_LangIDStrDescriptor+0x8>)
 8002d02:	4770      	bx	lr
 8002d04:	2000015c 	.word	0x2000015c

08002d08 <USBD_FS_ManufacturerStrDescriptor>:
 8002d08:	b510      	push	{r4, lr}
 8002d0a:	4c04      	ldr	r4, [pc, #16]	; (8002d1c <USBD_FS_ManufacturerStrDescriptor+0x14>)
 8002d0c:	4804      	ldr	r0, [pc, #16]	; (8002d20 <USBD_FS_ManufacturerStrDescriptor+0x18>)
 8002d0e:	460a      	mov	r2, r1
 8002d10:	4621      	mov	r1, r4
 8002d12:	f7ff fc9a 	bl	800264a <USBD_GetString>
 8002d16:	4620      	mov	r0, r4
 8002d18:	bd10      	pop	{r4, pc}
 8002d1a:	bf00      	nop
 8002d1c:	2000183c 	.word	0x2000183c
 8002d20:	0800370c 	.word	0x0800370c

08002d24 <USBD_FS_ProductStrDescriptor>:
 8002d24:	b510      	push	{r4, lr}
 8002d26:	4c04      	ldr	r4, [pc, #16]	; (8002d38 <USBD_FS_ProductStrDescriptor+0x14>)
 8002d28:	4804      	ldr	r0, [pc, #16]	; (8002d3c <USBD_FS_ProductStrDescriptor+0x18>)
 8002d2a:	460a      	mov	r2, r1
 8002d2c:	4621      	mov	r1, r4
 8002d2e:	f7ff fc8c 	bl	800264a <USBD_GetString>
 8002d32:	4620      	mov	r0, r4
 8002d34:	bd10      	pop	{r4, pc}
 8002d36:	bf00      	nop
 8002d38:	2000183c 	.word	0x2000183c
 8002d3c:	0800371f 	.word	0x0800371f

08002d40 <USBD_FS_SerialStrDescriptor>:
 8002d40:	b510      	push	{r4, lr}
 8002d42:	4c04      	ldr	r4, [pc, #16]	; (8002d54 <USBD_FS_SerialStrDescriptor+0x14>)
 8002d44:	4804      	ldr	r0, [pc, #16]	; (8002d58 <USBD_FS_SerialStrDescriptor+0x18>)
 8002d46:	460a      	mov	r2, r1
 8002d48:	4621      	mov	r1, r4
 8002d4a:	f7ff fc7e 	bl	800264a <USBD_GetString>
 8002d4e:	4620      	mov	r0, r4
 8002d50:	bd10      	pop	{r4, pc}
 8002d52:	bf00      	nop
 8002d54:	2000183c 	.word	0x2000183c
 8002d58:	08003735 	.word	0x08003735

08002d5c <USBD_FS_ConfigStrDescriptor>:
 8002d5c:	b510      	push	{r4, lr}
 8002d5e:	4c04      	ldr	r4, [pc, #16]	; (8002d70 <USBD_FS_ConfigStrDescriptor+0x14>)
 8002d60:	4804      	ldr	r0, [pc, #16]	; (8002d74 <USBD_FS_ConfigStrDescriptor+0x18>)
 8002d62:	460a      	mov	r2, r1
 8002d64:	4621      	mov	r1, r4
 8002d66:	f7ff fc70 	bl	800264a <USBD_GetString>
 8002d6a:	4620      	mov	r0, r4
 8002d6c:	bd10      	pop	{r4, pc}
 8002d6e:	bf00      	nop
 8002d70:	2000183c 	.word	0x2000183c
 8002d74:	080036f3 	.word	0x080036f3

08002d78 <USBD_FS_InterfaceStrDescriptor>:
 8002d78:	b510      	push	{r4, lr}
 8002d7a:	4c04      	ldr	r4, [pc, #16]	; (8002d8c <USBD_FS_InterfaceStrDescriptor+0x14>)
 8002d7c:	4804      	ldr	r0, [pc, #16]	; (8002d90 <USBD_FS_InterfaceStrDescriptor+0x18>)
 8002d7e:	460a      	mov	r2, r1
 8002d80:	4621      	mov	r1, r4
 8002d82:	f7ff fc62 	bl	800264a <USBD_GetString>
 8002d86:	4620      	mov	r0, r4
 8002d88:	bd10      	pop	{r4, pc}
 8002d8a:	bf00      	nop
 8002d8c:	2000183c 	.word	0x2000183c
 8002d90:	080036fe 	.word	0x080036fe

08002d94 <Reset_Handler>:
 8002d94:	f8df d034 	ldr.w	sp, [pc, #52]	; 8002dcc <LoopFillZerobss+0x14>
 8002d98:	2100      	movs	r1, #0
 8002d9a:	e003      	b.n	8002da4 <LoopCopyDataInit>

08002d9c <CopyDataInit>:
 8002d9c:	4b0c      	ldr	r3, [pc, #48]	; (8002dd0 <LoopFillZerobss+0x18>)
 8002d9e:	585b      	ldr	r3, [r3, r1]
 8002da0:	5043      	str	r3, [r0, r1]
 8002da2:	3104      	adds	r1, #4

08002da4 <LoopCopyDataInit>:
 8002da4:	480b      	ldr	r0, [pc, #44]	; (8002dd4 <LoopFillZerobss+0x1c>)
 8002da6:	4b0c      	ldr	r3, [pc, #48]	; (8002dd8 <LoopFillZerobss+0x20>)
 8002da8:	1842      	adds	r2, r0, r1
 8002daa:	429a      	cmp	r2, r3
 8002dac:	d3f6      	bcc.n	8002d9c <CopyDataInit>
 8002dae:	4a0b      	ldr	r2, [pc, #44]	; (8002ddc <LoopFillZerobss+0x24>)
 8002db0:	e002      	b.n	8002db8 <LoopFillZerobss>

08002db2 <FillZerobss>:
 8002db2:	2300      	movs	r3, #0
 8002db4:	f842 3b04 	str.w	r3, [r2], #4

08002db8 <LoopFillZerobss>:
 8002db8:	4b09      	ldr	r3, [pc, #36]	; (8002de0 <LoopFillZerobss+0x28>)
 8002dba:	429a      	cmp	r2, r3
 8002dbc:	d3f9      	bcc.n	8002db2 <FillZerobss>
 8002dbe:	f7ff fdbf 	bl	8002940 <SystemInit>
 8002dc2:	f000 f811 	bl	8002de8 <__libc_init_array>
 8002dc6:	f7ff fcf5 	bl	80027b4 <main>
 8002dca:	4770      	bx	lr
 8002dcc:	20020000 	.word	0x20020000
 8002dd0:	08003788 	.word	0x08003788
 8002dd4:	20000000 	.word	0x20000000
 8002dd8:	200001c4 	.word	0x200001c4
 8002ddc:	200001c4 	.word	0x200001c4
 8002de0:	20001a40 	.word	0x20001a40

08002de4 <ADC_IRQHandler>:
 8002de4:	e7fe      	b.n	8002de4 <ADC_IRQHandler>
	...

08002de8 <__libc_init_array>:
 8002de8:	b570      	push	{r4, r5, r6, lr}
 8002dea:	4e0d      	ldr	r6, [pc, #52]	; (8002e20 <__libc_init_array+0x38>)
 8002dec:	4c0d      	ldr	r4, [pc, #52]	; (8002e24 <__libc_init_array+0x3c>)
 8002dee:	1ba4      	subs	r4, r4, r6
 8002df0:	10a4      	asrs	r4, r4, #2
 8002df2:	2500      	movs	r5, #0
 8002df4:	42a5      	cmp	r5, r4
 8002df6:	d109      	bne.n	8002e0c <__libc_init_array+0x24>
 8002df8:	4e0b      	ldr	r6, [pc, #44]	; (8002e28 <__libc_init_array+0x40>)
 8002dfa:	4c0c      	ldr	r4, [pc, #48]	; (8002e2c <__libc_init_array+0x44>)
 8002dfc:	f000 fc52 	bl	80036a4 <_init>
 8002e00:	1ba4      	subs	r4, r4, r6
 8002e02:	10a4      	asrs	r4, r4, #2
 8002e04:	2500      	movs	r5, #0
 8002e06:	42a5      	cmp	r5, r4
 8002e08:	d105      	bne.n	8002e16 <__libc_init_array+0x2e>
 8002e0a:	bd70      	pop	{r4, r5, r6, pc}
 8002e0c:	f856 3025 	ldr.w	r3, [r6, r5, lsl #2]
 8002e10:	4798      	blx	r3
 8002e12:	3501      	adds	r5, #1
 8002e14:	e7ee      	b.n	8002df4 <__libc_init_array+0xc>
 8002e16:	f856 3025 	ldr.w	r3, [r6, r5, lsl #2]
 8002e1a:	4798      	blx	r3
 8002e1c:	3501      	adds	r5, #1
 8002e1e:	e7f2      	b.n	8002e06 <__libc_init_array+0x1e>
 8002e20:	08003780 	.word	0x08003780
 8002e24:	08003780 	.word	0x08003780
 8002e28:	08003780 	.word	0x08003780
 8002e2c:	08003784 	.word	0x08003784

08002e30 <malloc>:
 8002e30:	4b02      	ldr	r3, [pc, #8]	; (8002e3c <malloc+0xc>)
 8002e32:	4601      	mov	r1, r0
 8002e34:	6818      	ldr	r0, [r3, #0]
 8002e36:	f000 b859 	b.w	8002eec <_malloc_r>
 8002e3a:	bf00      	nop
 8002e3c:	20000160 	.word	0x20000160

08002e40 <free>:
 8002e40:	4b02      	ldr	r3, [pc, #8]	; (8002e4c <free+0xc>)
 8002e42:	4601      	mov	r1, r0
 8002e44:	6818      	ldr	r0, [r3, #0]
 8002e46:	f000 b803 	b.w	8002e50 <_free_r>
 8002e4a:	bf00      	nop
 8002e4c:	20000160 	.word	0x20000160

08002e50 <_free_r>:
 8002e50:	b538      	push	{r3, r4, r5, lr}
 8002e52:	4605      	mov	r5, r0
 8002e54:	2900      	cmp	r1, #0
 8002e56:	d045      	beq.n	8002ee4 <_free_r+0x94>
 8002e58:	f851 3c04 	ldr.w	r3, [r1, #-4]
 8002e5c:	1f0c      	subs	r4, r1, #4
 8002e5e:	2b00      	cmp	r3, #0
 8002e60:	bfb8      	it	lt
 8002e62:	18e4      	addlt	r4, r4, r3
 8002e64:	f000 f8d4 	bl	8003010 <__malloc_lock>
 8002e68:	4a1f      	ldr	r2, [pc, #124]	; (8002ee8 <_free_r+0x98>)
 8002e6a:	6813      	ldr	r3, [r2, #0]
 8002e6c:	4610      	mov	r0, r2
 8002e6e:	b933      	cbnz	r3, 8002e7e <_free_r+0x2e>
 8002e70:	6063      	str	r3, [r4, #4]
 8002e72:	6014      	str	r4, [r2, #0]
 8002e74:	4628      	mov	r0, r5
 8002e76:	e8bd 4038 	ldmia.w	sp!, {r3, r4, r5, lr}
 8002e7a:	f000 b8ca 	b.w	8003012 <__malloc_unlock>
 8002e7e:	42a3      	cmp	r3, r4
 8002e80:	d90c      	bls.n	8002e9c <_free_r+0x4c>
 8002e82:	6821      	ldr	r1, [r4, #0]
 8002e84:	1862      	adds	r2, r4, r1
 8002e86:	4293      	cmp	r3, r2
 8002e88:	bf04      	itt	eq
 8002e8a:	681a      	ldreq	r2, [r3, #0]
 8002e8c:	685b      	ldreq	r3, [r3, #4]
 8002e8e:	6063      	str	r3, [r4, #4]
 8002e90:	bf04      	itt	eq
 8002e92:	1852      	addeq	r2, r2, r1
 8002e94:	6022      	streq	r2, [r4, #0]
 8002e96:	6004      	str	r4, [r0, #0]
 8002e98:	e7ec      	b.n	8002e74 <_free_r+0x24>
 8002e9a:	4613      	mov	r3, r2
 8002e9c:	685a      	ldr	r2, [r3, #4]
 8002e9e:	b10a      	cbz	r2, 8002ea4 <_free_r+0x54>
 8002ea0:	42a2      	cmp	r2, r4
 8002ea2:	d9fa      	bls.n	8002e9a <_free_r+0x4a>
 8002ea4:	6819      	ldr	r1, [r3, #0]
 8002ea6:	1858      	adds	r0, r3, r1
 8002ea8:	42a0      	cmp	r0, r4
 8002eaa:	d10b      	bne.n	8002ec4 <_free_r+0x74>
 8002eac:	6820      	ldr	r0, [r4, #0]
 8002eae:	4401      	add	r1, r0
 8002eb0:	1858      	adds	r0, r3, r1
 8002eb2:	4282      	cmp	r2, r0
 8002eb4:	6019      	str	r1, [r3, #0]
 8002eb6:	d1dd      	bne.n	8002e74 <_free_r+0x24>
 8002eb8:	6810      	ldr	r0, [r2, #0]
 8002eba:	6852      	ldr	r2, [r2, #4]
 8002ebc:	605a      	str	r2, [r3, #4]
 8002ebe:	4401      	add	r1, r0
 8002ec0:	6019      	str	r1, [r3, #0]
 8002ec2:	e7d7      	b.n	8002e74 <_free_r+0x24>
 8002ec4:	d902      	bls.n	8002ecc <_free_r+0x7c>
 8002ec6:	230c      	movs	r3, #12
 8002ec8:	602b      	str	r3, [r5, #0]
 8002eca:	e7d3      	b.n	8002e74 <_free_r+0x24>
 8002ecc:	6820      	ldr	r0, [r4, #0]
 8002ece:	1821      	adds	r1, r4, r0
 8002ed0:	428a      	cmp	r2, r1
 8002ed2:	bf04      	itt	eq
 8002ed4:	6811      	ldreq	r1, [r2, #0]
 8002ed6:	6852      	ldreq	r2, [r2, #4]
 8002ed8:	6062      	str	r2, [r4, #4]
 8002eda:	bf04      	itt	eq
 8002edc:	1809      	addeq	r1, r1, r0
 8002ede:	6021      	streq	r1, [r4, #0]
 8002ee0:	605c      	str	r4, [r3, #4]
 8002ee2:	e7c7      	b.n	8002e74 <_free_r+0x24>
 8002ee4:	bd38      	pop	{r3, r4, r5, pc}
 8002ee6:	bf00      	nop
 8002ee8:	200001e8 	.word	0x200001e8

08002eec <_malloc_r>:
 8002eec:	b570      	push	{r4, r5, r6, lr}
 8002eee:	1ccd      	adds	r5, r1, #3
 8002ef0:	f025 0503 	bic.w	r5, r5, #3
 8002ef4:	3508      	adds	r5, #8
 8002ef6:	2d0c      	cmp	r5, #12
 8002ef8:	bf38      	it	cc
 8002efa:	250c      	movcc	r5, #12
 8002efc:	2d00      	cmp	r5, #0
 8002efe:	4606      	mov	r6, r0
 8002f00:	db01      	blt.n	8002f06 <_malloc_r+0x1a>
 8002f02:	42a9      	cmp	r1, r5
 8002f04:	d903      	bls.n	8002f0e <_malloc_r+0x22>
 8002f06:	230c      	movs	r3, #12
 8002f08:	6033      	str	r3, [r6, #0]
 8002f0a:	2000      	movs	r0, #0
 8002f0c:	bd70      	pop	{r4, r5, r6, pc}
 8002f0e:	f000 f87f 	bl	8003010 <__malloc_lock>
 8002f12:	4a23      	ldr	r2, [pc, #140]	; (8002fa0 <_malloc_r+0xb4>)
 8002f14:	6814      	ldr	r4, [r2, #0]
 8002f16:	4621      	mov	r1, r4
 8002f18:	b991      	cbnz	r1, 8002f40 <_malloc_r+0x54>
 8002f1a:	4c22      	ldr	r4, [pc, #136]	; (8002fa4 <_malloc_r+0xb8>)
 8002f1c:	6823      	ldr	r3, [r4, #0]
 8002f1e:	b91b      	cbnz	r3, 8002f28 <_malloc_r+0x3c>
 8002f20:	4630      	mov	r0, r6
 8002f22:	f000 f841 	bl	8002fa8 <_sbrk_r>
 8002f26:	6020      	str	r0, [r4, #0]
 8002f28:	4629      	mov	r1, r5
 8002f2a:	4630      	mov	r0, r6
 8002f2c:	f000 f83c 	bl	8002fa8 <_sbrk_r>
 8002f30:	1c43      	adds	r3, r0, #1
 8002f32:	d126      	bne.n	8002f82 <_malloc_r+0x96>
 8002f34:	230c      	movs	r3, #12
 8002f36:	6033      	str	r3, [r6, #0]
 8002f38:	4630      	mov	r0, r6
 8002f3a:	f000 f86a 	bl	8003012 <__malloc_unlock>
 8002f3e:	e7e4      	b.n	8002f0a <_malloc_r+0x1e>
 8002f40:	680b      	ldr	r3, [r1, #0]
 8002f42:	1b5b      	subs	r3, r3, r5
 8002f44:	d41a      	bmi.n	8002f7c <_malloc_r+0x90>
 8002f46:	2b0b      	cmp	r3, #11
 8002f48:	d90f      	bls.n	8002f6a <_malloc_r+0x7e>
 8002f4a:	600b      	str	r3, [r1, #0]
 8002f4c:	50cd      	str	r5, [r1, r3]
 8002f4e:	18cc      	adds	r4, r1, r3
 8002f50:	4630      	mov	r0, r6
 8002f52:	f000 f85e 	bl	8003012 <__malloc_unlock>
 8002f56:	f104 000b 	add.w	r0, r4, #11
 8002f5a:	1d23      	adds	r3, r4, #4
 8002f5c:	f020 0007 	bic.w	r0, r0, #7
 8002f60:	1ac3      	subs	r3, r0, r3
 8002f62:	d01b      	beq.n	8002f9c <_malloc_r+0xb0>
 8002f64:	425a      	negs	r2, r3
 8002f66:	50e2      	str	r2, [r4, r3]
 8002f68:	bd70      	pop	{r4, r5, r6, pc}
 8002f6a:	428c      	cmp	r4, r1
 8002f6c:	bf0d      	iteet	eq
 8002f6e:	6863      	ldreq	r3, [r4, #4]
 8002f70:	684b      	ldrne	r3, [r1, #4]
 8002f72:	6063      	strne	r3, [r4, #4]
 8002f74:	6013      	streq	r3, [r2, #0]
 8002f76:	bf18      	it	ne
 8002f78:	460c      	movne	r4, r1
 8002f7a:	e7e9      	b.n	8002f50 <_malloc_r+0x64>
 8002f7c:	460c      	mov	r4, r1
 8002f7e:	6849      	ldr	r1, [r1, #4]
 8002f80:	e7ca      	b.n	8002f18 <_malloc_r+0x2c>
 8002f82:	1cc4      	adds	r4, r0, #3
 8002f84:	f024 0403 	bic.w	r4, r4, #3
 8002f88:	42a0      	cmp	r0, r4
 8002f8a:	d005      	beq.n	8002f98 <_malloc_r+0xac>
 8002f8c:	1a21      	subs	r1, r4, r0
 8002f8e:	4630      	mov	r0, r6
 8002f90:	f000 f80a 	bl	8002fa8 <_sbrk_r>
 8002f94:	3001      	adds	r0, #1
 8002f96:	d0cd      	beq.n	8002f34 <_malloc_r+0x48>
 8002f98:	6025      	str	r5, [r4, #0]
 8002f9a:	e7d9      	b.n	8002f50 <_malloc_r+0x64>
 8002f9c:	bd70      	pop	{r4, r5, r6, pc}
 8002f9e:	bf00      	nop
 8002fa0:	200001e8 	.word	0x200001e8
 8002fa4:	200001ec 	.word	0x200001ec

08002fa8 <_sbrk_r>:
 8002fa8:	b538      	push	{r3, r4, r5, lr}
 8002faa:	4c06      	ldr	r4, [pc, #24]	; (8002fc4 <_sbrk_r+0x1c>)
 8002fac:	2300      	movs	r3, #0
 8002fae:	4605      	mov	r5, r0
 8002fb0:	4608      	mov	r0, r1
 8002fb2:	6023      	str	r3, [r4, #0]
 8002fb4:	f000 fb68 	bl	8003688 <_sbrk>
 8002fb8:	1c43      	adds	r3, r0, #1
 8002fba:	d102      	bne.n	8002fc2 <_sbrk_r+0x1a>
 8002fbc:	6823      	ldr	r3, [r4, #0]
 8002fbe:	b103      	cbz	r3, 8002fc2 <_sbrk_r+0x1a>
 8002fc0:	602b      	str	r3, [r5, #0]
 8002fc2:	bd38      	pop	{r3, r4, r5, pc}
 8002fc4:	20001a3c 	.word	0x20001a3c

08002fc8 <siprintf>:
 8002fc8:	b40e      	push	{r1, r2, r3}
 8002fca:	b500      	push	{lr}
 8002fcc:	b09c      	sub	sp, #112	; 0x70
 8002fce:	f44f 7102 	mov.w	r1, #520	; 0x208
 8002fd2:	ab1d      	add	r3, sp, #116	; 0x74
 8002fd4:	f8ad 1014 	strh.w	r1, [sp, #20]
 8002fd8:	9002      	str	r0, [sp, #8]
 8002fda:	9006      	str	r0, [sp, #24]
 8002fdc:	f06f 4100 	mvn.w	r1, #2147483648	; 0x80000000
 8002fe0:	480a      	ldr	r0, [pc, #40]	; (800300c <siprintf+0x44>)
 8002fe2:	9104      	str	r1, [sp, #16]
 8002fe4:	9107      	str	r1, [sp, #28]
 8002fe6:	f64f 71ff 	movw	r1, #65535	; 0xffff
 8002fea:	f853 2b04 	ldr.w	r2, [r3], #4
 8002fee:	f8ad 1016 	strh.w	r1, [sp, #22]
 8002ff2:	6800      	ldr	r0, [r0, #0]
 8002ff4:	9301      	str	r3, [sp, #4]
 8002ff6:	a902      	add	r1, sp, #8
 8002ff8:	f000 f868 	bl	80030cc <_svfiprintf_r>
 8002ffc:	9b02      	ldr	r3, [sp, #8]
 8002ffe:	2200      	movs	r2, #0
 8003000:	701a      	strb	r2, [r3, #0]
 8003002:	b01c      	add	sp, #112	; 0x70
 8003004:	f85d eb04 	ldr.w	lr, [sp], #4
 8003008:	b003      	add	sp, #12
 800300a:	4770      	bx	lr
 800300c:	20000160 	.word	0x20000160

08003010 <__malloc_lock>:
 8003010:	4770      	bx	lr

08003012 <__malloc_unlock>:
 8003012:	4770      	bx	lr

08003014 <__ssputs_r>:
 8003014:	e92d 47f0 	stmdb	sp!, {r4, r5, r6, r7, r8, r9, sl, lr}
 8003018:	688e      	ldr	r6, [r1, #8]
 800301a:	429e      	cmp	r6, r3
 800301c:	4682      	mov	sl, r0
 800301e:	460c      	mov	r4, r1
 8003020:	4691      	mov	r9, r2
 8003022:	4698      	mov	r8, r3
 8003024:	d835      	bhi.n	8003092 <__ssputs_r+0x7e>
 8003026:	898a      	ldrh	r2, [r1, #12]
 8003028:	f412 6f90 	tst.w	r2, #1152	; 0x480
 800302c:	d031      	beq.n	8003092 <__ssputs_r+0x7e>
 800302e:	6825      	ldr	r5, [r4, #0]
 8003030:	6909      	ldr	r1, [r1, #16]
 8003032:	1a6f      	subs	r7, r5, r1
 8003034:	6965      	ldr	r5, [r4, #20]
 8003036:	2302      	movs	r3, #2
 8003038:	eb05 0545 	add.w	r5, r5, r5, lsl #1
 800303c:	fb95 f5f3 	sdiv	r5, r5, r3
 8003040:	f108 0301 	add.w	r3, r8, #1
 8003044:	443b      	add	r3, r7
 8003046:	429d      	cmp	r5, r3
 8003048:	bf38      	it	cc
 800304a:	461d      	movcc	r5, r3
 800304c:	0553      	lsls	r3, r2, #21
 800304e:	d531      	bpl.n	80030b4 <__ssputs_r+0xa0>
 8003050:	4629      	mov	r1, r5
 8003052:	f7ff ff4b 	bl	8002eec <_malloc_r>
 8003056:	4606      	mov	r6, r0
 8003058:	b950      	cbnz	r0, 8003070 <__ssputs_r+0x5c>
 800305a:	230c      	movs	r3, #12
 800305c:	f8ca 3000 	str.w	r3, [sl]
 8003060:	89a3      	ldrh	r3, [r4, #12]
 8003062:	f043 0340 	orr.w	r3, r3, #64	; 0x40
 8003066:	81a3      	strh	r3, [r4, #12]
 8003068:	f04f 30ff 	mov.w	r0, #4294967295
 800306c:	e8bd 87f0 	ldmia.w	sp!, {r4, r5, r6, r7, r8, r9, sl, pc}
 8003070:	463a      	mov	r2, r7
 8003072:	6921      	ldr	r1, [r4, #16]
 8003074:	f000 fab4 	bl	80035e0 <memcpy>
 8003078:	89a3      	ldrh	r3, [r4, #12]
 800307a:	f423 6390 	bic.w	r3, r3, #1152	; 0x480
 800307e:	f043 0380 	orr.w	r3, r3, #128	; 0x80
 8003082:	81a3      	strh	r3, [r4, #12]
 8003084:	6126      	str	r6, [r4, #16]
 8003086:	6165      	str	r5, [r4, #20]
 8003088:	443e      	add	r6, r7
 800308a:	1bed      	subs	r5, r5, r7
 800308c:	6026      	str	r6, [r4, #0]
 800308e:	60a5      	str	r5, [r4, #8]
 8003090:	4646      	mov	r6, r8
 8003092:	4546      	cmp	r6, r8
 8003094:	bf28      	it	cs
 8003096:	4646      	movcs	r6, r8
 8003098:	4632      	mov	r2, r6
 800309a:	4649      	mov	r1, r9
 800309c:	6820      	ldr	r0, [r4, #0]
 800309e:	f000 faaa 	bl	80035f6 <memmove>
 80030a2:	68a3      	ldr	r3, [r4, #8]
 80030a4:	1b9b      	subs	r3, r3, r6
 80030a6:	60a3      	str	r3, [r4, #8]
 80030a8:	6823      	ldr	r3, [r4, #0]
 80030aa:	441e      	add	r6, r3
 80030ac:	6026      	str	r6, [r4, #0]
 80030ae:	2000      	movs	r0, #0
 80030b0:	e8bd 87f0 	ldmia.w	sp!, {r4, r5, r6, r7, r8, r9, sl, pc}
 80030b4:	462a      	mov	r2, r5
 80030b6:	f000 fab8 	bl	800362a <_realloc_r>
 80030ba:	4606      	mov	r6, r0
 80030bc:	2800      	cmp	r0, #0
 80030be:	d1e1      	bne.n	8003084 <__ssputs_r+0x70>
 80030c0:	6921      	ldr	r1, [r4, #16]
 80030c2:	4650      	mov	r0, sl
 80030c4:	f7ff fec4 	bl	8002e50 <_free_r>
 80030c8:	e7c7      	b.n	800305a <__ssputs_r+0x46>
	...

080030cc <_svfiprintf_r>:
 80030cc:	e92d 4ff0 	stmdb	sp!, {r4, r5, r6, r7, r8, r9, sl, fp, lr}
 80030d0:	b09d      	sub	sp, #116	; 0x74
 80030d2:	4680      	mov	r8, r0
 80030d4:	9303      	str	r3, [sp, #12]
 80030d6:	898b      	ldrh	r3, [r1, #12]
 80030d8:	061c      	lsls	r4, r3, #24
 80030da:	460d      	mov	r5, r1
 80030dc:	4616      	mov	r6, r2
 80030de:	d50f      	bpl.n	8003100 <_svfiprintf_r+0x34>
 80030e0:	690b      	ldr	r3, [r1, #16]
 80030e2:	b96b      	cbnz	r3, 8003100 <_svfiprintf_r+0x34>
 80030e4:	2140      	movs	r1, #64	; 0x40
 80030e6:	f7ff ff01 	bl	8002eec <_malloc_r>
 80030ea:	6028      	str	r0, [r5, #0]
 80030ec:	6128      	str	r0, [r5, #16]
 80030ee:	b928      	cbnz	r0, 80030fc <_svfiprintf_r+0x30>
 80030f0:	230c      	movs	r3, #12
 80030f2:	f8c8 3000 	str.w	r3, [r8]
 80030f6:	f04f 30ff 	mov.w	r0, #4294967295
 80030fa:	e0c5      	b.n	8003288 <_svfiprintf_r+0x1bc>
 80030fc:	2340      	movs	r3, #64	; 0x40
 80030fe:	616b      	str	r3, [r5, #20]
 8003100:	2300      	movs	r3, #0
 8003102:	9309      	str	r3, [sp, #36]	; 0x24
 8003104:	2320      	movs	r3, #32
 8003106:	f88d 3029 	strb.w	r3, [sp, #41]	; 0x29
 800310a:	2330      	movs	r3, #48	; 0x30
 800310c:	f88d 302a 	strb.w	r3, [sp, #42]	; 0x2a
 8003110:	f04f 0b01 	mov.w	fp, #1
 8003114:	4637      	mov	r7, r6
 8003116:	463c      	mov	r4, r7
 8003118:	f814 3b01 	ldrb.w	r3, [r4], #1
 800311c:	2b00      	cmp	r3, #0
 800311e:	d13c      	bne.n	800319a <_svfiprintf_r+0xce>
 8003120:	ebb7 0a06 	subs.w	sl, r7, r6
 8003124:	d00b      	beq.n	800313e <_svfiprintf_r+0x72>
 8003126:	4653      	mov	r3, sl
 8003128:	4632      	mov	r2, r6
 800312a:	4629      	mov	r1, r5
 800312c:	4640      	mov	r0, r8
 800312e:	f7ff ff71 	bl	8003014 <__ssputs_r>
 8003132:	3001      	adds	r0, #1
 8003134:	f000 80a3 	beq.w	800327e <_svfiprintf_r+0x1b2>
 8003138:	9b09      	ldr	r3, [sp, #36]	; 0x24
 800313a:	4453      	add	r3, sl
 800313c:	9309      	str	r3, [sp, #36]	; 0x24
 800313e:	783b      	ldrb	r3, [r7, #0]
 8003140:	2b00      	cmp	r3, #0
 8003142:	f000 809c 	beq.w	800327e <_svfiprintf_r+0x1b2>
 8003146:	2300      	movs	r3, #0
 8003148:	f04f 32ff 	mov.w	r2, #4294967295
 800314c:	9304      	str	r3, [sp, #16]
 800314e:	9307      	str	r3, [sp, #28]
 8003150:	9205      	str	r2, [sp, #20]
 8003152:	9306      	str	r3, [sp, #24]
 8003154:	f88d 3053 	strb.w	r3, [sp, #83]	; 0x53
 8003158:	931a      	str	r3, [sp, #104]	; 0x68
 800315a:	2205      	movs	r2, #5
 800315c:	7821      	ldrb	r1, [r4, #0]
 800315e:	4850      	ldr	r0, [pc, #320]	; (80032a0 <_svfiprintf_r+0x1d4>)
 8003160:	f7fd f836 	bl	80001d0 <memchr>
 8003164:	1c67      	adds	r7, r4, #1
 8003166:	9b04      	ldr	r3, [sp, #16]
 8003168:	b9d8      	cbnz	r0, 80031a2 <_svfiprintf_r+0xd6>
 800316a:	06d9      	lsls	r1, r3, #27
 800316c:	bf44      	itt	mi
 800316e:	2220      	movmi	r2, #32
 8003170:	f88d 2053 	strbmi.w	r2, [sp, #83]	; 0x53
 8003174:	071a      	lsls	r2, r3, #28
 8003176:	bf44      	itt	mi
 8003178:	222b      	movmi	r2, #43	; 0x2b
 800317a:	f88d 2053 	strbmi.w	r2, [sp, #83]	; 0x53
 800317e:	7822      	ldrb	r2, [r4, #0]
 8003180:	2a2a      	cmp	r2, #42	; 0x2a
 8003182:	d016      	beq.n	80031b2 <_svfiprintf_r+0xe6>
 8003184:	9a07      	ldr	r2, [sp, #28]
 8003186:	2100      	movs	r1, #0
 8003188:	200a      	movs	r0, #10
 800318a:	4627      	mov	r7, r4
 800318c:	3401      	adds	r4, #1
 800318e:	783b      	ldrb	r3, [r7, #0]
 8003190:	3b30      	subs	r3, #48	; 0x30
 8003192:	2b09      	cmp	r3, #9
 8003194:	d951      	bls.n	800323a <_svfiprintf_r+0x16e>
 8003196:	b1c9      	cbz	r1, 80031cc <_svfiprintf_r+0x100>
 8003198:	e011      	b.n	80031be <_svfiprintf_r+0xf2>
 800319a:	2b25      	cmp	r3, #37	; 0x25
 800319c:	d0c0      	beq.n	8003120 <_svfiprintf_r+0x54>
 800319e:	4627      	mov	r7, r4
 80031a0:	e7b9      	b.n	8003116 <_svfiprintf_r+0x4a>
 80031a2:	4a3f      	ldr	r2, [pc, #252]	; (80032a0 <_svfiprintf_r+0x1d4>)
 80031a4:	1a80      	subs	r0, r0, r2
 80031a6:	fa0b f000 	lsl.w	r0, fp, r0
 80031aa:	4318      	orrs	r0, r3
 80031ac:	9004      	str	r0, [sp, #16]
 80031ae:	463c      	mov	r4, r7
 80031b0:	e7d3      	b.n	800315a <_svfiprintf_r+0x8e>
 80031b2:	9a03      	ldr	r2, [sp, #12]
 80031b4:	1d11      	adds	r1, r2, #4
 80031b6:	6812      	ldr	r2, [r2, #0]
 80031b8:	9103      	str	r1, [sp, #12]
 80031ba:	2a00      	cmp	r2, #0
 80031bc:	db01      	blt.n	80031c2 <_svfiprintf_r+0xf6>
 80031be:	9207      	str	r2, [sp, #28]
 80031c0:	e004      	b.n	80031cc <_svfiprintf_r+0x100>
 80031c2:	4252      	negs	r2, r2
 80031c4:	f043 0302 	orr.w	r3, r3, #2
 80031c8:	9207      	str	r2, [sp, #28]
 80031ca:	9304      	str	r3, [sp, #16]
 80031cc:	783b      	ldrb	r3, [r7, #0]
 80031ce:	2b2e      	cmp	r3, #46	; 0x2e
 80031d0:	d10e      	bne.n	80031f0 <_svfiprintf_r+0x124>
 80031d2:	787b      	ldrb	r3, [r7, #1]
 80031d4:	2b2a      	cmp	r3, #42	; 0x2a
 80031d6:	f107 0101 	add.w	r1, r7, #1
 80031da:	d132      	bne.n	8003242 <_svfiprintf_r+0x176>
 80031dc:	9b03      	ldr	r3, [sp, #12]
 80031de:	1d1a      	adds	r2, r3, #4
 80031e0:	681b      	ldr	r3, [r3, #0]
 80031e2:	9203      	str	r2, [sp, #12]
 80031e4:	2b00      	cmp	r3, #0
 80031e6:	bfb8      	it	lt
 80031e8:	f04f 33ff 	movlt.w	r3, #4294967295
 80031ec:	3702      	adds	r7, #2
 80031ee:	9305      	str	r3, [sp, #20]
 80031f0:	4c2c      	ldr	r4, [pc, #176]	; (80032a4 <_svfiprintf_r+0x1d8>)
 80031f2:	7839      	ldrb	r1, [r7, #0]
 80031f4:	2203      	movs	r2, #3
 80031f6:	4620      	mov	r0, r4
 80031f8:	f7fc ffea 	bl	80001d0 <memchr>
 80031fc:	b138      	cbz	r0, 800320e <_svfiprintf_r+0x142>
 80031fe:	2340      	movs	r3, #64	; 0x40
 8003200:	1b00      	subs	r0, r0, r4
 8003202:	fa03 f000 	lsl.w	r0, r3, r0
 8003206:	9b04      	ldr	r3, [sp, #16]
 8003208:	4303      	orrs	r3, r0
 800320a:	9304      	str	r3, [sp, #16]
 800320c:	3701      	adds	r7, #1
 800320e:	7839      	ldrb	r1, [r7, #0]
 8003210:	4825      	ldr	r0, [pc, #148]	; (80032a8 <_svfiprintf_r+0x1dc>)
 8003212:	f88d 1028 	strb.w	r1, [sp, #40]	; 0x28
 8003216:	2206      	movs	r2, #6
 8003218:	1c7e      	adds	r6, r7, #1
 800321a:	f7fc ffd9 	bl	80001d0 <memchr>
 800321e:	2800      	cmp	r0, #0
 8003220:	d035      	beq.n	800328e <_svfiprintf_r+0x1c2>
 8003222:	4b22      	ldr	r3, [pc, #136]	; (80032ac <_svfiprintf_r+0x1e0>)
 8003224:	b9fb      	cbnz	r3, 8003266 <_svfiprintf_r+0x19a>
 8003226:	9b03      	ldr	r3, [sp, #12]
 8003228:	3307      	adds	r3, #7
 800322a:	f023 0307 	bic.w	r3, r3, #7
 800322e:	3308      	adds	r3, #8
 8003230:	9303      	str	r3, [sp, #12]
 8003232:	9b09      	ldr	r3, [sp, #36]	; 0x24
 8003234:	444b      	add	r3, r9
 8003236:	9309      	str	r3, [sp, #36]	; 0x24
 8003238:	e76c      	b.n	8003114 <_svfiprintf_r+0x48>
 800323a:	fb00 3202 	mla	r2, r0, r2, r3
 800323e:	2101      	movs	r1, #1
 8003240:	e7a3      	b.n	800318a <_svfiprintf_r+0xbe>
 8003242:	2300      	movs	r3, #0
 8003244:	9305      	str	r3, [sp, #20]
 8003246:	4618      	mov	r0, r3
 8003248:	240a      	movs	r4, #10
 800324a:	460f      	mov	r7, r1
 800324c:	3101      	adds	r1, #1
 800324e:	783a      	ldrb	r2, [r7, #0]
 8003250:	3a30      	subs	r2, #48	; 0x30
 8003252:	2a09      	cmp	r2, #9
 8003254:	d903      	bls.n	800325e <_svfiprintf_r+0x192>
 8003256:	2b00      	cmp	r3, #0
 8003258:	d0ca      	beq.n	80031f0 <_svfiprintf_r+0x124>
 800325a:	9005      	str	r0, [sp, #20]
 800325c:	e7c8      	b.n	80031f0 <_svfiprintf_r+0x124>
 800325e:	fb04 2000 	mla	r0, r4, r0, r2
 8003262:	2301      	movs	r3, #1
 8003264:	e7f1      	b.n	800324a <_svfiprintf_r+0x17e>
 8003266:	ab03      	add	r3, sp, #12
 8003268:	9300      	str	r3, [sp, #0]
 800326a:	462a      	mov	r2, r5
 800326c:	4b10      	ldr	r3, [pc, #64]	; (80032b0 <_svfiprintf_r+0x1e4>)
 800326e:	a904      	add	r1, sp, #16
 8003270:	4640      	mov	r0, r8
 8003272:	f3af 8000 	nop.w
 8003276:	f1b0 3fff 	cmp.w	r0, #4294967295
 800327a:	4681      	mov	r9, r0
 800327c:	d1d9      	bne.n	8003232 <_svfiprintf_r+0x166>
 800327e:	89ab      	ldrh	r3, [r5, #12]
 8003280:	065b      	lsls	r3, r3, #25
 8003282:	f53f af38 	bmi.w	80030f6 <_svfiprintf_r+0x2a>
 8003286:	9809      	ldr	r0, [sp, #36]	; 0x24
 8003288:	b01d      	add	sp, #116	; 0x74
 800328a:	e8bd 8ff0 	ldmia.w	sp!, {r4, r5, r6, r7, r8, r9, sl, fp, pc}
 800328e:	ab03      	add	r3, sp, #12
 8003290:	9300      	str	r3, [sp, #0]
 8003292:	462a      	mov	r2, r5
 8003294:	4b06      	ldr	r3, [pc, #24]	; (80032b0 <_svfiprintf_r+0x1e4>)
 8003296:	a904      	add	r1, sp, #16
 8003298:	4640      	mov	r0, r8
 800329a:	f000 f881 	bl	80033a0 <_printf_i>
 800329e:	e7ea      	b.n	8003276 <_svfiprintf_r+0x1aa>
 80032a0:	08003742 	.word	0x08003742
 80032a4:	08003748 	.word	0x08003748
 80032a8:	0800374c 	.word	0x0800374c
 80032ac:	00000000 	.word	0x00000000
 80032b0:	08003015 	.word	0x08003015

080032b4 <_printf_common>:
 80032b4:	e92d 47f0 	stmdb	sp!, {r4, r5, r6, r7, r8, r9, sl, lr}
 80032b8:	4691      	mov	r9, r2
 80032ba:	461f      	mov	r7, r3
 80032bc:	688a      	ldr	r2, [r1, #8]
 80032be:	690b      	ldr	r3, [r1, #16]
 80032c0:	f8dd 8020 	ldr.w	r8, [sp, #32]
 80032c4:	4293      	cmp	r3, r2
 80032c6:	bfb8      	it	lt
 80032c8:	4613      	movlt	r3, r2
 80032ca:	f8c9 3000 	str.w	r3, [r9]
 80032ce:	f891 2043 	ldrb.w	r2, [r1, #67]	; 0x43
 80032d2:	4606      	mov	r6, r0
 80032d4:	460c      	mov	r4, r1
 80032d6:	b112      	cbz	r2, 80032de <_printf_common+0x2a>
 80032d8:	3301      	adds	r3, #1
 80032da:	f8c9 3000 	str.w	r3, [r9]
 80032de:	6823      	ldr	r3, [r4, #0]
 80032e0:	0699      	lsls	r1, r3, #26
 80032e2:	bf42      	ittt	mi
 80032e4:	f8d9 3000 	ldrmi.w	r3, [r9]
 80032e8:	3302      	addmi	r3, #2
 80032ea:	f8c9 3000 	strmi.w	r3, [r9]
 80032ee:	6825      	ldr	r5, [r4, #0]
 80032f0:	f015 0506 	ands.w	r5, r5, #6
 80032f4:	d107      	bne.n	8003306 <_printf_common+0x52>
 80032f6:	f104 0a19 	add.w	sl, r4, #25
 80032fa:	68e3      	ldr	r3, [r4, #12]
 80032fc:	f8d9 2000 	ldr.w	r2, [r9]
 8003300:	1a9b      	subs	r3, r3, r2
 8003302:	429d      	cmp	r5, r3
 8003304:	db29      	blt.n	800335a <_printf_common+0xa6>
 8003306:	f894 3043 	ldrb.w	r3, [r4, #67]	; 0x43
 800330a:	6822      	ldr	r2, [r4, #0]
 800330c:	3300      	adds	r3, #0
 800330e:	bf18      	it	ne
 8003310:	2301      	movne	r3, #1
 8003312:	0692      	lsls	r2, r2, #26
 8003314:	d42e      	bmi.n	8003374 <_printf_common+0xc0>
 8003316:	f104 0243 	add.w	r2, r4, #67	; 0x43
 800331a:	4639      	mov	r1, r7
 800331c:	4630      	mov	r0, r6
 800331e:	47c0      	blx	r8
 8003320:	3001      	adds	r0, #1
 8003322:	d021      	beq.n	8003368 <_printf_common+0xb4>
 8003324:	6823      	ldr	r3, [r4, #0]
 8003326:	68e5      	ldr	r5, [r4, #12]
 8003328:	f8d9 2000 	ldr.w	r2, [r9]
 800332c:	f003 0306 	and.w	r3, r3, #6
 8003330:	2b04      	cmp	r3, #4
 8003332:	bf08      	it	eq
 8003334:	1aad      	subeq	r5, r5, r2
 8003336:	68a3      	ldr	r3, [r4, #8]
 8003338:	6922      	ldr	r2, [r4, #16]
 800333a:	bf0c      	ite	eq
 800333c:	ea25 75e5 	biceq.w	r5, r5, r5, asr #31
 8003340:	2500      	movne	r5, #0
 8003342:	4293      	cmp	r3, r2
 8003344:	bfc4      	itt	gt
 8003346:	1a9b      	subgt	r3, r3, r2
 8003348:	18ed      	addgt	r5, r5, r3
 800334a:	f04f 0900 	mov.w	r9, #0
 800334e:	341a      	adds	r4, #26
 8003350:	454d      	cmp	r5, r9
 8003352:	d11b      	bne.n	800338c <_printf_common+0xd8>
 8003354:	2000      	movs	r0, #0
 8003356:	e8bd 87f0 	ldmia.w	sp!, {r4, r5, r6, r7, r8, r9, sl, pc}
 800335a:	2301      	movs	r3, #1
 800335c:	4652      	mov	r2, sl
 800335e:	4639      	mov	r1, r7
 8003360:	4630      	mov	r0, r6
 8003362:	47c0      	blx	r8
 8003364:	3001      	adds	r0, #1
 8003366:	d103      	bne.n	8003370 <_printf_common+0xbc>
 8003368:	f04f 30ff 	mov.w	r0, #4294967295
 800336c:	e8bd 87f0 	ldmia.w	sp!, {r4, r5, r6, r7, r8, r9, sl, pc}
 8003370:	3501      	adds	r5, #1
 8003372:	e7c2      	b.n	80032fa <_printf_common+0x46>
 8003374:	18e1      	adds	r1, r4, r3
 8003376:	1c5a      	adds	r2, r3, #1
 8003378:	2030      	movs	r0, #48	; 0x30
 800337a:	f881 0043 	strb.w	r0, [r1, #67]	; 0x43
 800337e:	4422      	add	r2, r4
 8003380:	f894 1045 	ldrb.w	r1, [r4, #69]	; 0x45
 8003384:	f882 1043 	strb.w	r1, [r2, #67]	; 0x43
 8003388:	3302      	adds	r3, #2
 800338a:	e7c4      	b.n	8003316 <_printf_common+0x62>
 800338c:	2301      	movs	r3, #1
 800338e:	4622      	mov	r2, r4
 8003390:	4639      	mov	r1, r7
 8003392:	4630      	mov	r0, r6
 8003394:	47c0      	blx	r8
 8003396:	3001      	adds	r0, #1
 8003398:	d0e6      	beq.n	8003368 <_printf_common+0xb4>
 800339a:	f109 0901 	add.w	r9, r9, #1
 800339e:	e7d7      	b.n	8003350 <_printf_common+0x9c>

080033a0 <_printf_i>:
 80033a0:	e92d 43f0 	stmdb	sp!, {r4, r5, r6, r7, r8, r9, lr}
 80033a4:	4617      	mov	r7, r2
 80033a6:	7e0a      	ldrb	r2, [r1, #24]
 80033a8:	b085      	sub	sp, #20
 80033aa:	2a6e      	cmp	r2, #110	; 0x6e
 80033ac:	4698      	mov	r8, r3
 80033ae:	4606      	mov	r6, r0
 80033b0:	460c      	mov	r4, r1
 80033b2:	9b0c      	ldr	r3, [sp, #48]	; 0x30
 80033b4:	f101 0e43 	add.w	lr, r1, #67	; 0x43
 80033b8:	f000 80bc 	beq.w	8003534 <_printf_i+0x194>
 80033bc:	d81a      	bhi.n	80033f4 <_printf_i+0x54>
 80033be:	2a63      	cmp	r2, #99	; 0x63
 80033c0:	d02e      	beq.n	8003420 <_printf_i+0x80>
 80033c2:	d80a      	bhi.n	80033da <_printf_i+0x3a>
 80033c4:	2a00      	cmp	r2, #0
 80033c6:	f000 80c8 	beq.w	800355a <_printf_i+0x1ba>
 80033ca:	2a58      	cmp	r2, #88	; 0x58
 80033cc:	f000 808a 	beq.w	80034e4 <_printf_i+0x144>
 80033d0:	f104 0542 	add.w	r5, r4, #66	; 0x42
 80033d4:	f884 2042 	strb.w	r2, [r4, #66]	; 0x42
 80033d8:	e02a      	b.n	8003430 <_printf_i+0x90>
 80033da:	2a64      	cmp	r2, #100	; 0x64
 80033dc:	d001      	beq.n	80033e2 <_printf_i+0x42>
 80033de:	2a69      	cmp	r2, #105	; 0x69
 80033e0:	d1f6      	bne.n	80033d0 <_printf_i+0x30>
 80033e2:	6821      	ldr	r1, [r4, #0]
 80033e4:	681a      	ldr	r2, [r3, #0]
 80033e6:	f011 0f80 	tst.w	r1, #128	; 0x80
 80033ea:	d023      	beq.n	8003434 <_printf_i+0x94>
 80033ec:	1d11      	adds	r1, r2, #4
 80033ee:	6019      	str	r1, [r3, #0]
 80033f0:	6813      	ldr	r3, [r2, #0]
 80033f2:	e027      	b.n	8003444 <_printf_i+0xa4>
 80033f4:	2a73      	cmp	r2, #115	; 0x73
 80033f6:	f000 80b4 	beq.w	8003562 <_printf_i+0x1c2>
 80033fa:	d808      	bhi.n	800340e <_printf_i+0x6e>
 80033fc:	2a6f      	cmp	r2, #111	; 0x6f
 80033fe:	d02a      	beq.n	8003456 <_printf_i+0xb6>
 8003400:	2a70      	cmp	r2, #112	; 0x70
 8003402:	d1e5      	bne.n	80033d0 <_printf_i+0x30>
 8003404:	680a      	ldr	r2, [r1, #0]
 8003406:	f042 0220 	orr.w	r2, r2, #32
 800340a:	600a      	str	r2, [r1, #0]
 800340c:	e003      	b.n	8003416 <_printf_i+0x76>
 800340e:	2a75      	cmp	r2, #117	; 0x75
 8003410:	d021      	beq.n	8003456 <_printf_i+0xb6>
 8003412:	2a78      	cmp	r2, #120	; 0x78
 8003414:	d1dc      	bne.n	80033d0 <_printf_i+0x30>
 8003416:	2278      	movs	r2, #120	; 0x78
 8003418:	f884 2045 	strb.w	r2, [r4, #69]	; 0x45
 800341c:	496e      	ldr	r1, [pc, #440]	; (80035d8 <_printf_i+0x238>)
 800341e:	e064      	b.n	80034ea <_printf_i+0x14a>
 8003420:	681a      	ldr	r2, [r3, #0]
 8003422:	f101 0542 	add.w	r5, r1, #66	; 0x42
 8003426:	1d11      	adds	r1, r2, #4
 8003428:	6019      	str	r1, [r3, #0]
 800342a:	6813      	ldr	r3, [r2, #0]
 800342c:	f884 3042 	strb.w	r3, [r4, #66]	; 0x42
 8003430:	2301      	movs	r3, #1
 8003432:	e0a3      	b.n	800357c <_printf_i+0x1dc>
 8003434:	f011 0f40 	tst.w	r1, #64	; 0x40
 8003438:	f102 0104 	add.w	r1, r2, #4
 800343c:	6019      	str	r1, [r3, #0]
 800343e:	d0d7      	beq.n	80033f0 <_printf_i+0x50>
 8003440:	f9b2 3000 	ldrsh.w	r3, [r2]
 8003444:	2b00      	cmp	r3, #0
 8003446:	da03      	bge.n	8003450 <_printf_i+0xb0>
 8003448:	222d      	movs	r2, #45	; 0x2d
 800344a:	425b      	negs	r3, r3
 800344c:	f884 2043 	strb.w	r2, [r4, #67]	; 0x43
 8003450:	4962      	ldr	r1, [pc, #392]	; (80035dc <_printf_i+0x23c>)
 8003452:	220a      	movs	r2, #10
 8003454:	e017      	b.n	8003486 <_printf_i+0xe6>
 8003456:	6820      	ldr	r0, [r4, #0]
 8003458:	6819      	ldr	r1, [r3, #0]
 800345a:	f010 0f80 	tst.w	r0, #128	; 0x80
 800345e:	d003      	beq.n	8003468 <_printf_i+0xc8>
 8003460:	1d08      	adds	r0, r1, #4
 8003462:	6018      	str	r0, [r3, #0]
 8003464:	680b      	ldr	r3, [r1, #0]
 8003466:	e006      	b.n	8003476 <_printf_i+0xd6>
 8003468:	f010 0f40 	tst.w	r0, #64	; 0x40
 800346c:	f101 0004 	add.w	r0, r1, #4
 8003470:	6018      	str	r0, [r3, #0]
 8003472:	d0f7      	beq.n	8003464 <_printf_i+0xc4>
 8003474:	880b      	ldrh	r3, [r1, #0]
 8003476:	4959      	ldr	r1, [pc, #356]	; (80035dc <_printf_i+0x23c>)
 8003478:	2a6f      	cmp	r2, #111	; 0x6f
 800347a:	bf14      	ite	ne
 800347c:	220a      	movne	r2, #10
 800347e:	2208      	moveq	r2, #8
 8003480:	2000      	movs	r0, #0
 8003482:	f884 0043 	strb.w	r0, [r4, #67]	; 0x43
 8003486:	6865      	ldr	r5, [r4, #4]
 8003488:	60a5      	str	r5, [r4, #8]
 800348a:	2d00      	cmp	r5, #0
 800348c:	f2c0 809c 	blt.w	80035c8 <_printf_i+0x228>
 8003490:	6820      	ldr	r0, [r4, #0]
 8003492:	f020 0004 	bic.w	r0, r0, #4
 8003496:	6020      	str	r0, [r4, #0]
 8003498:	2b00      	cmp	r3, #0
 800349a:	d13f      	bne.n	800351c <_printf_i+0x17c>
 800349c:	2d00      	cmp	r5, #0
 800349e:	f040 8095 	bne.w	80035cc <_printf_i+0x22c>
 80034a2:	4675      	mov	r5, lr
 80034a4:	2a08      	cmp	r2, #8
 80034a6:	d10b      	bne.n	80034c0 <_printf_i+0x120>
 80034a8:	6823      	ldr	r3, [r4, #0]
 80034aa:	07da      	lsls	r2, r3, #31
 80034ac:	d508      	bpl.n	80034c0 <_printf_i+0x120>
 80034ae:	6923      	ldr	r3, [r4, #16]
 80034b0:	6862      	ldr	r2, [r4, #4]
 80034b2:	429a      	cmp	r2, r3
 80034b4:	bfde      	ittt	le
 80034b6:	2330      	movle	r3, #48	; 0x30
 80034b8:	f805 3c01 	strble.w	r3, [r5, #-1]
 80034bc:	f105 35ff 	addle.w	r5, r5, #4294967295
 80034c0:	ebae 0305 	sub.w	r3, lr, r5
 80034c4:	6123      	str	r3, [r4, #16]
 80034c6:	f8cd 8000 	str.w	r8, [sp]
 80034ca:	463b      	mov	r3, r7
 80034cc:	aa03      	add	r2, sp, #12
 80034ce:	4621      	mov	r1, r4
 80034d0:	4630      	mov	r0, r6
 80034d2:	f7ff feef 	bl	80032b4 <_printf_common>
 80034d6:	3001      	adds	r0, #1
 80034d8:	d155      	bne.n	8003586 <_printf_i+0x1e6>
 80034da:	f04f 30ff 	mov.w	r0, #4294967295
 80034de:	b005      	add	sp, #20
 80034e0:	e8bd 83f0 	ldmia.w	sp!, {r4, r5, r6, r7, r8, r9, pc}
 80034e4:	f881 2045 	strb.w	r2, [r1, #69]	; 0x45
 80034e8:	493c      	ldr	r1, [pc, #240]	; (80035dc <_printf_i+0x23c>)
 80034ea:	6822      	ldr	r2, [r4, #0]
 80034ec:	6818      	ldr	r0, [r3, #0]
 80034ee:	f012 0f80 	tst.w	r2, #128	; 0x80
 80034f2:	f100 0504 	add.w	r5, r0, #4
 80034f6:	601d      	str	r5, [r3, #0]
 80034f8:	d001      	beq.n	80034fe <_printf_i+0x15e>
 80034fa:	6803      	ldr	r3, [r0, #0]
 80034fc:	e002      	b.n	8003504 <_printf_i+0x164>
 80034fe:	0655      	lsls	r5, r2, #25
 8003500:	d5fb      	bpl.n	80034fa <_printf_i+0x15a>
 8003502:	8803      	ldrh	r3, [r0, #0]
 8003504:	07d0      	lsls	r0, r2, #31
 8003506:	bf44      	itt	mi
 8003508:	f042 0220 	orrmi.w	r2, r2, #32
 800350c:	6022      	strmi	r2, [r4, #0]
 800350e:	b91b      	cbnz	r3, 8003518 <_printf_i+0x178>
 8003510:	6822      	ldr	r2, [r4, #0]
 8003512:	f022 0220 	bic.w	r2, r2, #32
 8003516:	6022      	str	r2, [r4, #0]
 8003518:	2210      	movs	r2, #16
 800351a:	e7b1      	b.n	8003480 <_printf_i+0xe0>
 800351c:	4675      	mov	r5, lr
 800351e:	fbb3 f0f2 	udiv	r0, r3, r2
 8003522:	fb02 3310 	mls	r3, r2, r0, r3
 8003526:	5ccb      	ldrb	r3, [r1, r3]
 8003528:	f805 3d01 	strb.w	r3, [r5, #-1]!
 800352c:	4603      	mov	r3, r0
 800352e:	2800      	cmp	r0, #0
 8003530:	d1f5      	bne.n	800351e <_printf_i+0x17e>
 8003532:	e7b7      	b.n	80034a4 <_printf_i+0x104>
 8003534:	6808      	ldr	r0, [r1, #0]
 8003536:	681a      	ldr	r2, [r3, #0]
 8003538:	6949      	ldr	r1, [r1, #20]
 800353a:	f010 0f80 	tst.w	r0, #128	; 0x80
 800353e:	d004      	beq.n	800354a <_printf_i+0x1aa>
 8003540:	1d10      	adds	r0, r2, #4
 8003542:	6018      	str	r0, [r3, #0]
 8003544:	6813      	ldr	r3, [r2, #0]
 8003546:	6019      	str	r1, [r3, #0]
 8003548:	e007      	b.n	800355a <_printf_i+0x1ba>
 800354a:	f010 0f40 	tst.w	r0, #64	; 0x40
 800354e:	f102 0004 	add.w	r0, r2, #4
 8003552:	6018      	str	r0, [r3, #0]
 8003554:	6813      	ldr	r3, [r2, #0]
 8003556:	d0f6      	beq.n	8003546 <_printf_i+0x1a6>
 8003558:	8019      	strh	r1, [r3, #0]
 800355a:	2300      	movs	r3, #0
 800355c:	6123      	str	r3, [r4, #16]
 800355e:	4675      	mov	r5, lr
 8003560:	e7b1      	b.n	80034c6 <_printf_i+0x126>
 8003562:	681a      	ldr	r2, [r3, #0]
 8003564:	1d11      	adds	r1, r2, #4
 8003566:	6019      	str	r1, [r3, #0]
 8003568:	6815      	ldr	r5, [r2, #0]
 800356a:	6862      	ldr	r2, [r4, #4]
 800356c:	2100      	movs	r1, #0
 800356e:	4628      	mov	r0, r5
 8003570:	f7fc fe2e 	bl	80001d0 <memchr>
 8003574:	b108      	cbz	r0, 800357a <_printf_i+0x1da>
 8003576:	1b40      	subs	r0, r0, r5
 8003578:	6060      	str	r0, [r4, #4]
 800357a:	6863      	ldr	r3, [r4, #4]
 800357c:	6123      	str	r3, [r4, #16]
 800357e:	2300      	movs	r3, #0
 8003580:	f884 3043 	strb.w	r3, [r4, #67]	; 0x43
 8003584:	e79f      	b.n	80034c6 <_printf_i+0x126>
 8003586:	6923      	ldr	r3, [r4, #16]
 8003588:	462a      	mov	r2, r5
 800358a:	4639      	mov	r1, r7
 800358c:	4630      	mov	r0, r6
 800358e:	47c0      	blx	r8
 8003590:	3001      	adds	r0, #1
 8003592:	d0a2      	beq.n	80034da <_printf_i+0x13a>
 8003594:	6823      	ldr	r3, [r4, #0]
 8003596:	079b      	lsls	r3, r3, #30
 8003598:	d507      	bpl.n	80035aa <_printf_i+0x20a>
 800359a:	2500      	movs	r5, #0
 800359c:	f104 0919 	add.w	r9, r4, #25
 80035a0:	68e3      	ldr	r3, [r4, #12]
 80035a2:	9a03      	ldr	r2, [sp, #12]
 80035a4:	1a9b      	subs	r3, r3, r2
 80035a6:	429d      	cmp	r5, r3
 80035a8:	db05      	blt.n	80035b6 <_printf_i+0x216>
 80035aa:	68e0      	ldr	r0, [r4, #12]
 80035ac:	9b03      	ldr	r3, [sp, #12]
 80035ae:	4298      	cmp	r0, r3
 80035b0:	bfb8      	it	lt
 80035b2:	4618      	movlt	r0, r3
 80035b4:	e793      	b.n	80034de <_printf_i+0x13e>
 80035b6:	2301      	movs	r3, #1
 80035b8:	464a      	mov	r2, r9
 80035ba:	4639      	mov	r1, r7
 80035bc:	4630      	mov	r0, r6
 80035be:	47c0      	blx	r8
 80035c0:	3001      	adds	r0, #1
 80035c2:	d08a      	beq.n	80034da <_printf_i+0x13a>
 80035c4:	3501      	adds	r5, #1
 80035c6:	e7eb      	b.n	80035a0 <_printf_i+0x200>
 80035c8:	2b00      	cmp	r3, #0
 80035ca:	d1a7      	bne.n	800351c <_printf_i+0x17c>
 80035cc:	780b      	ldrb	r3, [r1, #0]
 80035ce:	f884 3042 	strb.w	r3, [r4, #66]	; 0x42
 80035d2:	f104 0542 	add.w	r5, r4, #66	; 0x42
 80035d6:	e765      	b.n	80034a4 <_printf_i+0x104>
 80035d8:	08003764 	.word	0x08003764
 80035dc:	08003753 	.word	0x08003753

080035e0 <memcpy>:
 80035e0:	b510      	push	{r4, lr}
 80035e2:	1e43      	subs	r3, r0, #1
 80035e4:	440a      	add	r2, r1
 80035e6:	4291      	cmp	r1, r2
 80035e8:	d100      	bne.n	80035ec <memcpy+0xc>
 80035ea:	bd10      	pop	{r4, pc}
 80035ec:	f811 4b01 	ldrb.w	r4, [r1], #1
 80035f0:	f803 4f01 	strb.w	r4, [r3, #1]!
 80035f4:	e7f7      	b.n	80035e6 <memcpy+0x6>

080035f6 <memmove>:
 80035f6:	4288      	cmp	r0, r1
 80035f8:	b510      	push	{r4, lr}
 80035fa:	eb01 0302 	add.w	r3, r1, r2
 80035fe:	d803      	bhi.n	8003608 <memmove+0x12>
 8003600:	1e42      	subs	r2, r0, #1
 8003602:	4299      	cmp	r1, r3
 8003604:	d10c      	bne.n	8003620 <memmove+0x2a>
 8003606:	bd10      	pop	{r4, pc}
 8003608:	4298      	cmp	r0, r3
 800360a:	d2f9      	bcs.n	8003600 <memmove+0xa>
 800360c:	1881      	adds	r1, r0, r2
 800360e:	1ad2      	subs	r2, r2, r3
 8003610:	42d3      	cmn	r3, r2
 8003612:	d100      	bne.n	8003616 <memmove+0x20>
 8003614:	bd10      	pop	{r4, pc}
 8003616:	f813 4d01 	ldrb.w	r4, [r3, #-1]!
 800361a:	f801 4d01 	strb.w	r4, [r1, #-1]!
 800361e:	e7f7      	b.n	8003610 <memmove+0x1a>
 8003620:	f811 4b01 	ldrb.w	r4, [r1], #1
 8003624:	f802 4f01 	strb.w	r4, [r2, #1]!
 8003628:	e7eb      	b.n	8003602 <memmove+0xc>

0800362a <_realloc_r>:
 800362a:	b5f8      	push	{r3, r4, r5, r6, r7, lr}
 800362c:	4607      	mov	r7, r0
 800362e:	4614      	mov	r4, r2
 8003630:	460e      	mov	r6, r1
 8003632:	b921      	cbnz	r1, 800363e <_realloc_r+0x14>
 8003634:	4611      	mov	r1, r2
 8003636:	e8bd 40f8 	ldmia.w	sp!, {r3, r4, r5, r6, r7, lr}
 800363a:	f7ff bc57 	b.w	8002eec <_malloc_r>
 800363e:	b922      	cbnz	r2, 800364a <_realloc_r+0x20>
 8003640:	f7ff fc06 	bl	8002e50 <_free_r>
 8003644:	4625      	mov	r5, r4
 8003646:	4628      	mov	r0, r5
 8003648:	bdf8      	pop	{r3, r4, r5, r6, r7, pc}
 800364a:	f000 f814 	bl	8003676 <_malloc_usable_size_r>
 800364e:	4284      	cmp	r4, r0
 8003650:	d90f      	bls.n	8003672 <_realloc_r+0x48>
 8003652:	4621      	mov	r1, r4
 8003654:	4638      	mov	r0, r7
 8003656:	f7ff fc49 	bl	8002eec <_malloc_r>
 800365a:	4605      	mov	r5, r0
 800365c:	2800      	cmp	r0, #0
 800365e:	d0f2      	beq.n	8003646 <_realloc_r+0x1c>
 8003660:	4631      	mov	r1, r6
 8003662:	4622      	mov	r2, r4
 8003664:	f7ff ffbc 	bl	80035e0 <memcpy>
 8003668:	4631      	mov	r1, r6
 800366a:	4638      	mov	r0, r7
 800366c:	f7ff fbf0 	bl	8002e50 <_free_r>
 8003670:	e7e9      	b.n	8003646 <_realloc_r+0x1c>
 8003672:	4635      	mov	r5, r6
 8003674:	e7e7      	b.n	8003646 <_realloc_r+0x1c>

08003676 <_malloc_usable_size_r>:
 8003676:	f851 0c04 	ldr.w	r0, [r1, #-4]
 800367a:	2800      	cmp	r0, #0
 800367c:	f1a0 0004 	sub.w	r0, r0, #4
 8003680:	bfbc      	itt	lt
 8003682:	580b      	ldrlt	r3, [r1, r0]
 8003684:	18c0      	addlt	r0, r0, r3
 8003686:	4770      	bx	lr

08003688 <_sbrk>:
 8003688:	4b04      	ldr	r3, [pc, #16]	; (800369c <_sbrk+0x14>)
 800368a:	6819      	ldr	r1, [r3, #0]
 800368c:	4602      	mov	r2, r0
 800368e:	b909      	cbnz	r1, 8003694 <_sbrk+0xc>
 8003690:	4903      	ldr	r1, [pc, #12]	; (80036a0 <_sbrk+0x18>)
 8003692:	6019      	str	r1, [r3, #0]
 8003694:	6818      	ldr	r0, [r3, #0]
 8003696:	4402      	add	r2, r0
 8003698:	601a      	str	r2, [r3, #0]
 800369a:	4770      	bx	lr
 800369c:	200001f0 	.word	0x200001f0
 80036a0:	20001a40 	.word	0x20001a40

080036a4 <_init>:
 80036a4:	b5f8      	push	{r3, r4, r5, r6, r7, lr}
 80036a6:	bf00      	nop
 80036a8:	bcf8      	pop	{r3, r4, r5, r6, r7}
 80036aa:	bc08      	pop	{r3}
 80036ac:	469e      	mov	lr, r3
 80036ae:	4770      	bx	lr

080036b0 <_fini>:
 80036b0:	b5f8      	push	{r3, r4, r5, r6, r7, lr}
 80036b2:	bf00      	nop
 80036b4:	bcf8      	pop	{r3, r4, r5, r6, r7}
 80036b6:	bc08      	pop	{r3}
 80036b8:	469e      	mov	lr, r3
 80036ba:	4770      	bx	lr
